	.text
	.syntax unified
	.eabi_attribute	67, "2.09"	@ Tag_conformance
	.cpu	cortex-a9
	.eabi_attribute	6, 10	@ Tag_CPU_arch
	.eabi_attribute	7, 65	@ Tag_CPU_arch_profile
	.eabi_attribute	8, 1	@ Tag_ARM_ISA_use
	.eabi_attribute	9, 2	@ Tag_THUMB_ISA_use
	.fpu	neon-fp16
	.eabi_attribute	15, 1	@ Tag_ABI_PCS_RW_data
	.eabi_attribute	16, 1	@ Tag_ABI_PCS_RO_data
	.eabi_attribute	17, 2	@ Tag_ABI_PCS_GOT_use
	.eabi_attribute	20, 2	@ Tag_ABI_FP_denormal
	.eabi_attribute	23, 1	@ Tag_ABI_FP_number_model
	.eabi_attribute	34, 1	@ Tag_CPU_unaligned_access
	.eabi_attribute	24, 1	@ Tag_ABI_align_needed
	.eabi_attribute	25, 1	@ Tag_ABI_align_preserved
	.eabi_attribute	28, 1	@ Tag_ABI_VFP_args
	.eabi_attribute	36, 1	@ Tag_FP_HP_extension
	.eabi_attribute	38, 1	@ Tag_ABI_FP_16bit_format
	.eabi_attribute	42, 1	@ Tag_MPextension_use
	.eabi_attribute	14, 0	@ Tag_ABI_PCS_R9_use
	.eabi_attribute	68, 1	@ Tag_Virtualization_use
	.file	"pipeline_zynq"
	.section	.text._ZN6Halide7Runtime8Internal14default_mallocEPvj,"ax",%progbits
	.weak	_ZN6Halide7Runtime8Internal14default_mallocEPvj
	.align	2
	.type	_ZN6Halide7Runtime8Internal14default_mallocEPvj,%function
_ZN6Halide7Runtime8Internal14default_mallocEPvj: @ @_ZN6Halide7Runtime8Internal14default_mallocEPvj
	.fnstart
@ BB#0:
	.save	{r11, lr}
	push	{r11, lr}
	.setfp	r11, sp
	mov	r11, sp
	add	r0, r1, #128
	bl	malloc(PLT)
	mov	r1, r0
	mov	r0, #0
	cmp	r1, #0
	addne	r0, r1, #131
	bfcne	r0, #0, #7
	strne	r1, [r0, #-4]
	pop	{r11, pc}
.Lfunc_end0:
	.size	_ZN6Halide7Runtime8Internal14default_mallocEPvj, .Lfunc_end0-_ZN6Halide7Runtime8Internal14default_mallocEPvj
	.cantunwind
	.fnend

	.section	.text._ZN6Halide7Runtime8Internal12default_freeEPvS2_,"ax",%progbits
	.weak	_ZN6Halide7Runtime8Internal12default_freeEPvS2_
	.align	2
	.type	_ZN6Halide7Runtime8Internal12default_freeEPvS2_,%function
_ZN6Halide7Runtime8Internal12default_freeEPvS2_: @ @_ZN6Halide7Runtime8Internal12default_freeEPvS2_
	.fnstart
@ BB#0:
	ldr	r0, [r1, #-4]
	b	free(PLT)
.Lfunc_end1:
	.size	_ZN6Halide7Runtime8Internal12default_freeEPvS2_, .Lfunc_end1-_ZN6Halide7Runtime8Internal12default_freeEPvS2_
	.cantunwind
	.fnend

	.section	.text.halide_set_custom_malloc,"ax",%progbits
	.weak	halide_set_custom_malloc
	.align	2
	.type	halide_set_custom_malloc,%function
halide_set_custom_malloc:               @ @halide_set_custom_malloc
	.fnstart
@ BB#0:
	ldr	r1, .LCPI2_0
.LPC2_0:
	ldr	r2, [pc, r1]
	ldr	r1, [r2]
	str	r0, [r2]
	mov	r0, r1
	bx	lr
	.align	2
@ BB#1:
.LCPI2_0:
.Ltmp0:
	.long	_ZN6Halide7Runtime8Internal13custom_mallocE(GOT_PREL)-((.LPC2_0+8)-.Ltmp0)
.Lfunc_end2:
	.size	halide_set_custom_malloc, .Lfunc_end2-halide_set_custom_malloc
	.cantunwind
	.fnend

	.section	.text.halide_set_custom_free,"ax",%progbits
	.weak	halide_set_custom_free
	.align	2
	.type	halide_set_custom_free,%function
halide_set_custom_free:                 @ @halide_set_custom_free
	.fnstart
@ BB#0:
	ldr	r1, .LCPI3_0
.LPC3_0:
	ldr	r2, [pc, r1]
	ldr	r1, [r2]
	str	r0, [r2]
	mov	r0, r1
	bx	lr
	.align	2
@ BB#1:
.LCPI3_0:
.Ltmp1:
	.long	_ZN6Halide7Runtime8Internal11custom_freeE(GOT_PREL)-((.LPC3_0+8)-.Ltmp1)
.Lfunc_end3:
	.size	halide_set_custom_free, .Lfunc_end3-halide_set_custom_free
	.cantunwind
	.fnend

	.section	.text.halide_malloc,"ax",%progbits
	.weak	halide_malloc
	.align	2
	.type	halide_malloc,%function
halide_malloc:                          @ @halide_malloc
	.fnstart
@ BB#0:
	ldr	r2, .LCPI4_0
.LPC4_0:
	ldr	r2, [pc, r2]
	ldr	r2, [r2]
	bx	r2
	.align	2
@ BB#1:
.LCPI4_0:
.Ltmp2:
	.long	_ZN6Halide7Runtime8Internal13custom_mallocE(GOT_PREL)-((.LPC4_0+8)-.Ltmp2)
.Lfunc_end4:
	.size	halide_malloc, .Lfunc_end4-halide_malloc
	.cantunwind
	.fnend

	.section	.text.halide_free,"ax",%progbits
	.weak	halide_free
	.align	2
	.type	halide_free,%function
halide_free:                            @ @halide_free
	.fnstart
@ BB#0:
	ldr	r2, .LCPI5_0
.LPC5_0:
	ldr	r2, [pc, r2]
	ldr	r2, [r2]
	bx	r2
	.align	2
@ BB#1:
.LCPI5_0:
.Ltmp3:
	.long	_ZN6Halide7Runtime8Internal11custom_freeE(GOT_PREL)-((.LPC5_0+8)-.Ltmp3)
.Lfunc_end5:
	.size	halide_free, .Lfunc_end5-halide_free
	.cantunwind
	.fnend

	.section	.text._ZN6Halide7Runtime8Internal21default_error_handlerEPvPKc,"ax",%progbits
	.weak	_ZN6Halide7Runtime8Internal21default_error_handlerEPvPKc
	.align	2
	.type	_ZN6Halide7Runtime8Internal21default_error_handlerEPvPKc,%function
_ZN6Halide7Runtime8Internal21default_error_handlerEPvPKc: @ @_ZN6Halide7Runtime8Internal21default_error_handlerEPvPKc
	.fnstart
@ BB#0:
	.save	{r4, r5, r6, r10, r11, lr}
	push	{r4, r5, r6, r10, r11, lr}
	.setfp	r11, sp, #16
	add	r11, sp, #16
	.pad	#4096
	sub	sp, sp, #4096
	mov	r5, r1
	mov	r4, r0
	ldr	r1, .LCPI6_0
	movw	r2, #4094
	mov	r0, sp
	add	r6, r0, r2
.LPC6_0:
	add	r2, pc, r1
	mov	r1, r6
	bl	halide_string_to_string(PLT)
	mov	r1, r6
	mov	r2, r5
	bl	halide_string_to_string(PLT)
	ldrb	r1, [r0, #-1]
	cmp	r1, #10
	movne	r1, #10
	strhne	r1, [r0]
	mov	r1, sp
	mov	r0, r4
	bl	halide_print(PLT)
	bl	abort(PLT)
	sub	sp, r11, #16
	pop	{r4, r5, r6, r10, r11, pc}
	.align	2
@ BB#1:
.LCPI6_0:
	.long	.L.str-(.LPC6_0+8)
.Lfunc_end6:
	.size	_ZN6Halide7Runtime8Internal21default_error_handlerEPvPKc, .Lfunc_end6-_ZN6Halide7Runtime8Internal21default_error_handlerEPvPKc
	.cantunwind
	.fnend

	.section	.text.halide_error,"ax",%progbits
	.weak	halide_error
	.align	2
	.type	halide_error,%function
halide_error:                           @ @halide_error
	.fnstart
@ BB#0:
	ldr	r2, .LCPI7_0
.LPC7_0:
	ldr	r2, [pc, r2]
	ldr	r2, [r2]
	bx	r2
	.align	2
@ BB#1:
.LCPI7_0:
.Ltmp4:
	.long	_ZN6Halide7Runtime8Internal13error_handlerE(GOT_PREL)-((.LPC7_0+8)-.Ltmp4)
.Lfunc_end7:
	.size	halide_error, .Lfunc_end7-halide_error
	.cantunwind
	.fnend

	.section	.text.halide_set_error_handler,"ax",%progbits
	.weak	halide_set_error_handler
	.align	2
	.type	halide_set_error_handler,%function
halide_set_error_handler:               @ @halide_set_error_handler
	.fnstart
@ BB#0:
	ldr	r1, .LCPI8_0
.LPC8_0:
	ldr	r2, [pc, r1]
	ldr	r1, [r2]
	str	r0, [r2]
	mov	r0, r1
	bx	lr
	.align	2
@ BB#1:
.LCPI8_0:
.Ltmp5:
	.long	_ZN6Halide7Runtime8Internal13error_handlerE(GOT_PREL)-((.LPC8_0+8)-.Ltmp5)
.Lfunc_end8:
	.size	halide_set_error_handler, .Lfunc_end8-halide_set_error_handler
	.cantunwind
	.fnend

	.section	.text.halide_print,"ax",%progbits
	.weak	halide_print
	.align	2
	.type	halide_print,%function
halide_print:                           @ @halide_print
	.fnstart
@ BB#0:
	ldr	r2, .LCPI9_0
.LPC9_0:
	ldr	r2, [pc, r2]
	ldr	r2, [r2]
	bx	r2
	.align	2
@ BB#1:
.LCPI9_0:
.Ltmp6:
	.long	_ZN6Halide7Runtime8Internal12custom_printE(GOT_PREL)-((.LPC9_0+8)-.Ltmp6)
.Lfunc_end9:
	.size	halide_print, .Lfunc_end9-halide_print
	.cantunwind
	.fnend

	.section	.text.halide_set_custom_print,"ax",%progbits
	.weak	halide_set_custom_print
	.align	2
	.type	halide_set_custom_print,%function
halide_set_custom_print:                @ @halide_set_custom_print
	.fnstart
@ BB#0:
	ldr	r1, .LCPI10_0
.LPC10_0:
	ldr	r2, [pc, r1]
	ldr	r1, [r2]
	str	r0, [r2]
	mov	r0, r1
	bx	lr
	.align	2
@ BB#1:
.LCPI10_0:
.Ltmp7:
	.long	_ZN6Halide7Runtime8Internal12custom_printE(GOT_PREL)-((.LPC10_0+8)-.Ltmp7)
.Lfunc_end10:
	.size	halide_set_custom_print, .Lfunc_end10-halide_set_custom_print
	.cantunwind
	.fnend

	.section	.text.halide_start_clock,"ax",%progbits
	.weak	halide_start_clock
	.align	2
	.type	halide_start_clock,%function
halide_start_clock:                     @ @halide_start_clock
	.fnstart
@ BB#0:
	ldr	r0, .LCPI11_0
.LPC11_0:
	ldr	r0, [pc, r0]
	ldrb	r0, [r0]
	cmp	r0, #0
	bne	.LBB11_2
@ BB#1:
	.save	{r11, lr}
	push	{r11, lr}
	.setfp	r11, sp
	mov	r11, sp
	ldr	r0, .LCPI11_1
	mov	r1, #0
.LPC11_2:
	ldr	r0, [pc, r0]
	bl	gettimeofday(PLT)
	ldr	r0, .LCPI11_2
	mov	r1, #1
.LPC11_1:
	ldr	r0, [pc, r0]
	strb	r1, [r0]
	pop	{r11, lr}
.LBB11_2:
	mov	r0, #0
	bx	lr
	.align	2
@ BB#3:
.LCPI11_0:
.Ltmp8:
	.long	_ZN6Halide7Runtime8Internal29halide_reference_clock_initedE(GOT_PREL)-((.LPC11_0+8)-.Ltmp8)
.LCPI11_1:
.Ltmp9:
	.long	_ZN6Halide7Runtime8Internal22halide_reference_clockE(GOT_PREL)-((.LPC11_2+8)-.Ltmp9)
.LCPI11_2:
.Ltmp10:
	.long	_ZN6Halide7Runtime8Internal29halide_reference_clock_initedE(GOT_PREL)-((.LPC11_1+8)-.Ltmp10)
.Lfunc_end11:
	.size	halide_start_clock, .Lfunc_end11-halide_start_clock
	.cantunwind
	.fnend

	.section	.text.halide_current_time_ns,"ax",%progbits
	.weak	halide_current_time_ns
	.align	2
	.type	halide_current_time_ns,%function
halide_current_time_ns:                 @ @halide_current_time_ns
	.fnstart
@ BB#0:
	.save	{r11, lr}
	push	{r11, lr}
	.setfp	r11, sp
	mov	r11, sp
	.pad	#8
	sub	sp, sp, #8
	mov	r0, sp
	mov	r1, #0
	bl	gettimeofday(PLT)
	ldr	r0, .LCPI12_0
	ldr	r2, [sp, #4]
	ldr	r12, [sp]
.LPC12_0:
	ldr	r0, [pc, r0]
	asr	r1, r2, #31
	ldr	r3, [r0]
	ldr	r0, [r0, #4]
	subs	r2, r2, r0
	sbc	r1, r1, r0, asr #31
	sub	r0, r12, r3
	movw	r3, #16960
	movt	r3, #15
	smlal	r2, r1, r0, r3
	mov	r3, #1000
	umull	r0, r2, r2, r3
	mla	r1, r1, r3, r2
	mov	sp, r11
	pop	{r11, pc}
	.align	2
@ BB#1:
.LCPI12_0:
.Ltmp11:
	.long	_ZN6Halide7Runtime8Internal22halide_reference_clockE(GOT_PREL)-((.LPC12_0+8)-.Ltmp11)
.Lfunc_end12:
	.size	halide_current_time_ns, .Lfunc_end12-halide_current_time_ns
	.cantunwind
	.fnend

	.section	.text.halide_sleep_ms,"ax",%progbits
	.weak	halide_sleep_ms
	.align	2
	.type	halide_sleep_ms,%function
halide_sleep_ms:                        @ @halide_sleep_ms
	.fnstart
@ BB#0:
	mov	r0, #1000
	mul	r0, r1, r0
	b	usleep(PLT)
.Lfunc_end13:
	.size	halide_sleep_ms, .Lfunc_end13-halide_sleep_ms
	.cantunwind
	.fnend

	.section	.text._ZN6Halide7Runtime8Internal17halide_print_implEPvPKc,"ax",%progbits
	.weak	_ZN6Halide7Runtime8Internal17halide_print_implEPvPKc
	.align	2
	.type	_ZN6Halide7Runtime8Internal17halide_print_implEPvPKc,%function
_ZN6Halide7Runtime8Internal17halide_print_implEPvPKc: @ @_ZN6Halide7Runtime8Internal17halide_print_implEPvPKc
	.fnstart
@ BB#0:
	.save	{r4, r10, r11, lr}
	push	{r4, r10, r11, lr}
	.setfp	r11, sp, #8
	add	r11, sp, #8
	mov	r4, r1
	mov	r0, r4
	bl	strlen(PLT)
	mov	r2, r0
	mov	r0, #2
	mov	r1, r4
	pop	{r4, r10, r11, lr}
	b	write(PLT)
.Lfunc_end14:
	.size	_ZN6Halide7Runtime8Internal17halide_print_implEPvPKc, .Lfunc_end14-_ZN6Halide7Runtime8Internal17halide_print_implEPvPKc
	.cantunwind
	.fnend

	.section	.text.halide_create_temp_file,"ax",%progbits
	.weak	halide_create_temp_file
	.align	2
	.type	halide_create_temp_file,%function
halide_create_temp_file:                @ @halide_create_temp_file
	.fnstart
@ BB#0:
	.save	{r4, r5, r6, r7, r8, r9, r11, lr}
	push	{r4, r5, r6, r7, r8, r9, r11, lr}
	.setfp	r11, sp, #24
	add	r11, sp, #24
	mov	r7, r1
	mov	r5, r3
	mov	r6, r2
	mvn	r8, #21
	cmp	r7, #0
	beq	.LBB15_5
@ BB#1:
	cmp	r6, #0
	cmpne	r5, #0
	beq	.LBB15_5
@ BB#2:
	ldr	r0, .LCPI15_0
	ldr	r9, [r11, #8]
.LPC15_1:
	add	r0, pc, r0
	bl	strlen(PLT)
	mov	r4, r0
	mov	r0, r7
	bl	strlen(PLT)
	ldr	r1, .LCPI15_1
	add	r4, r4, r0
.LPC15_0:
	add	r0, pc, r1
	bl	strlen(PLT)
	add	r4, r4, r0
	mov	r0, r6
	bl	strlen(PLT)
	add	r0, r4, r0
	add	r0, r0, #1
	cmp	r0, r9
	bhi	.LBB15_5
@ BB#3:
	ldr	r0, .LCPI15_2
	add	r1, r5, r9
	sub	r4, r1, #1
.LPC15_3:
	add	r2, pc, r0
	mov	r0, r5
	mov	r1, r4
	bl	halide_string_to_string(PLT)
	mov	r1, r4
	mov	r2, r7
	bl	halide_string_to_string(PLT)
	ldr	r1, .LCPI15_3
.LPC15_2:
	add	r2, pc, r1
	mov	r1, r4
	bl	halide_string_to_string(PLT)
	mov	r1, r4
	mov	r2, r6
	bl	halide_string_to_string(PLT)
	mov	r1, #0
	strb	r1, [r0]
	mov	r0, r6
	bl	strlen(PLT)
	mov	r1, r0
	mov	r0, r5
	bl	mkstemps(PLT)
	cmn	r0, #1
	beq	.LBB15_5
@ BB#4:
	bl	close(PLT)
	mov	r8, #0
.LBB15_5:
	mov	r0, r8
	pop	{r4, r5, r6, r7, r8, r9, r11, pc}
	.align	2
@ BB#6:
.LCPI15_0:
	.long	.L.str.5-(.LPC15_1+8)
.LCPI15_1:
	.long	.L.str.1-(.LPC15_0+8)
.LCPI15_2:
	.long	.L.str.5-(.LPC15_3+8)
.LCPI15_3:
	.long	.L.str.1-(.LPC15_2+8)
.Lfunc_end15:
	.size	halide_create_temp_file, .Lfunc_end15-halide_create_temp_file
	.cantunwind
	.fnend

	.section	.text.halide_host_cpu_count,"ax",%progbits
	.weak	halide_host_cpu_count
	.align	2
	.type	halide_host_cpu_count,%function
halide_host_cpu_count:                  @ @halide_host_cpu_count
	.fnstart
@ BB#0:
	mov	r0, #84
	b	sysconf(PLT)
.Lfunc_end16:
	.size	halide_host_cpu_count, .Lfunc_end16-halide_host_cpu_count
	.cantunwind
	.fnend

	.section	.text._ZN6Halide7Runtime8Internal19spawn_thread_helperEPv,"ax",%progbits
	.weak	_ZN6Halide7Runtime8Internal19spawn_thread_helperEPv
	.align	2
	.type	_ZN6Halide7Runtime8Internal19spawn_thread_helperEPv,%function
_ZN6Halide7Runtime8Internal19spawn_thread_helperEPv: @ @_ZN6Halide7Runtime8Internal19spawn_thread_helperEPv
	.fnstart
@ BB#0:
	.save	{r11, lr}
	push	{r11, lr}
	.setfp	r11, sp
	mov	r11, sp
	ldr	r1, [r0]
	ldr	r0, [r0, #4]
	blx	r1
	mov	r0, #0
	pop	{r11, pc}
.Lfunc_end17:
	.size	_ZN6Halide7Runtime8Internal19spawn_thread_helperEPv, .Lfunc_end17-_ZN6Halide7Runtime8Internal19spawn_thread_helperEPv
	.cantunwind
	.fnend

	.section	.text.halide_spawn_thread,"ax",%progbits
	.weak	halide_spawn_thread
	.align	2
	.type	halide_spawn_thread,%function
halide_spawn_thread:                    @ @halide_spawn_thread
	.fnstart
@ BB#0:
	.save	{r4, r5, r6, r10, r11, lr}
	push	{r4, r5, r6, r10, r11, lr}
	.setfp	r11, sp, #16
	add	r11, sp, #16
	mov	r5, r0
	mov	r0, #12
	mov	r4, r1
	bl	malloc(PLT)
	mov	r6, r0
	ldr	r0, .LCPI18_0
	mov	r1, #0
	str	r5, [r6]
	str	r4, [r6, #4]
	mov	r3, r6
.LPC18_0:
	ldr	r2, [pc, r0]
	mov	r0, r6
	str	r1, [r0, #8]!
	mov	r1, #0
	bl	pthread_create(PLT)
	mov	r0, r6
	pop	{r4, r5, r6, r10, r11, pc}
	.align	2
@ BB#1:
.LCPI18_0:
.Ltmp12:
	.long	_ZN6Halide7Runtime8Internal19spawn_thread_helperEPv(GOT_PREL)-((.LPC18_0+8)-.Ltmp12)
.Lfunc_end18:
	.size	halide_spawn_thread, .Lfunc_end18-halide_spawn_thread
	.cantunwind
	.fnend

	.section	.text.halide_join_thread,"ax",%progbits
	.weak	halide_join_thread
	.align	2
	.type	halide_join_thread,%function
halide_join_thread:                     @ @halide_join_thread
	.fnstart
@ BB#0:
	.save	{r4, r10, r11, lr}
	push	{r4, r10, r11, lr}
	.setfp	r11, sp, #8
	add	r11, sp, #8
	.pad	#8
	sub	sp, sp, #8
	mov	r4, r0
	mov	r0, #0
	str	r0, [sp, #4]
	add	r1, sp, #4
	ldr	r0, [r4, #8]
	bl	pthread_join(PLT)
	mov	r0, r4
	bl	free(PLT)
	sub	sp, r11, #8
	pop	{r4, r10, r11, pc}
.Lfunc_end19:
	.size	halide_join_thread, .Lfunc_end19-halide_join_thread
	.cantunwind
	.fnend

	.section	.text.halide_mutex_lock,"ax",%progbits
	.weak	halide_mutex_lock
	.align	2
	.type	halide_mutex_lock,%function
halide_mutex_lock:                      @ @halide_mutex_lock
	.fnstart
@ BB#0:
	b	pthread_mutex_lock(PLT)
.Lfunc_end20:
	.size	halide_mutex_lock, .Lfunc_end20-halide_mutex_lock
	.cantunwind
	.fnend

	.section	.text.halide_mutex_unlock,"ax",%progbits
	.weak	halide_mutex_unlock
	.align	2
	.type	halide_mutex_unlock,%function
halide_mutex_unlock:                    @ @halide_mutex_unlock
	.fnstart
@ BB#0:
	b	pthread_mutex_unlock(PLT)
.Lfunc_end21:
	.size	halide_mutex_unlock, .Lfunc_end21-halide_mutex_unlock
	.cantunwind
	.fnend

	.section	.text.halide_mutex_destroy,"ax",%progbits
	.weak	halide_mutex_destroy
	.align	2
	.type	halide_mutex_destroy,%function
halide_mutex_destroy:                   @ @halide_mutex_destroy
	.fnstart
@ BB#0:
	.save	{r4, r10, r11, lr}
	push	{r4, r10, r11, lr}
	.setfp	r11, sp, #8
	add	r11, sp, #8
	mov	r4, r0
	bl	pthread_mutex_destroy(PLT)
	mov	r0, r4
	mov	r1, #0
	mov	r2, #64
	pop	{r4, r10, r11, lr}
	b	memset(PLT)
.Lfunc_end22:
	.size	halide_mutex_destroy, .Lfunc_end22-halide_mutex_destroy
	.cantunwind
	.fnend

	.section	.text.halide_cond_init,"ax",%progbits
	.weak	halide_cond_init
	.align	2
	.type	halide_cond_init,%function
halide_cond_init:                       @ @halide_cond_init
	.fnstart
@ BB#0:
	mov	r1, #0
	b	pthread_cond_init(PLT)
.Lfunc_end23:
	.size	halide_cond_init, .Lfunc_end23-halide_cond_init
	.cantunwind
	.fnend

	.section	.text.halide_cond_destroy,"ax",%progbits
	.weak	halide_cond_destroy
	.align	2
	.type	halide_cond_destroy,%function
halide_cond_destroy:                    @ @halide_cond_destroy
	.fnstart
@ BB#0:
	b	pthread_cond_destroy(PLT)
.Lfunc_end24:
	.size	halide_cond_destroy, .Lfunc_end24-halide_cond_destroy
	.cantunwind
	.fnend

	.section	.text.halide_cond_broadcast,"ax",%progbits
	.weak	halide_cond_broadcast
	.align	2
	.type	halide_cond_broadcast,%function
halide_cond_broadcast:                  @ @halide_cond_broadcast
	.fnstart
@ BB#0:
	b	pthread_cond_broadcast(PLT)
.Lfunc_end25:
	.size	halide_cond_broadcast, .Lfunc_end25-halide_cond_broadcast
	.cantunwind
	.fnend

	.section	.text.halide_cond_wait,"ax",%progbits
	.weak	halide_cond_wait
	.align	2
	.type	halide_cond_wait,%function
halide_cond_wait:                       @ @halide_cond_wait
	.fnstart
@ BB#0:
	b	pthread_cond_wait(PLT)
.Lfunc_end26:
	.size	halide_cond_wait, .Lfunc_end26-halide_cond_wait
	.cantunwind
	.fnend

	.section	.text._ZN6Halide7Runtime8Internal15default_do_taskEPvPFiS2_iPhEiS3_,"ax",%progbits
	.weak	_ZN6Halide7Runtime8Internal15default_do_taskEPvPFiS2_iPhEiS3_
	.align	2
	.type	_ZN6Halide7Runtime8Internal15default_do_taskEPvPFiS2_iPhEiS3_,%function
_ZN6Halide7Runtime8Internal15default_do_taskEPvPFiS2_iPhEiS3_: @ @_ZN6Halide7Runtime8Internal15default_do_taskEPvPFiS2_iPhEiS3_
	.fnstart
@ BB#0:
	mov	r12, r1
	mov	r1, r2
	mov	r2, r3
	bx	r12
.Lfunc_end27:
	.size	_ZN6Halide7Runtime8Internal15default_do_taskEPvPFiS2_iPhEiS3_, .Lfunc_end27-_ZN6Halide7Runtime8Internal15default_do_taskEPvPFiS2_iPhEiS3_
	.cantunwind
	.fnend

	.section	.text._ZN6Halide7Runtime8Internal18default_do_par_forEPvPFiS2_iPhEiiS3_,"ax",%progbits
	.weak	_ZN6Halide7Runtime8Internal18default_do_par_forEPvPFiS2_iPhEiiS3_
	.align	2
	.type	_ZN6Halide7Runtime8Internal18default_do_par_forEPvPFiS2_iPhEiiS3_,%function
_ZN6Halide7Runtime8Internal18default_do_par_forEPvPFiS2_iPhEiiS3_: @ @_ZN6Halide7Runtime8Internal18default_do_par_forEPvPFiS2_iPhEiiS3_
	.fnstart
@ BB#0:
	.save	{r4, r5, r6, r7, r8, r9, r10, r11, lr}
	push	{r4, r5, r6, r7, r8, r9, r10, r11, lr}
	.setfp	r11, sp, #28
	add	r11, sp, #28
	.pad	#36
	sub	sp, sp, #36
	mov	r8, r0
	ldr	r0, .LCPI28_0
	mov	r4, r3
	mov	r5, r2
	mov	r9, r1
.LPC28_0:
	ldr	r6, [pc, r0]
	mov	r0, r6
	bl	halide_mutex_lock(PLT)
	ldrb	r0, [r6, #537]
	cmp	r0, #0
	beq	.LBB28_2
@ BB#1:                                 @ %..preheader_crit_edge
	ldr	r0, .LCPI28_1
.LPC28_1:
	ldr	r0, [pc, r0]
	ldr	r6, [r0, #528]
	ldr	r0, [r0, #532]
	b	.LBB28_5
.LBB28_2:
	ldr	r0, .LCPI28_2
	mov	r6, #0
.LPC28_2:
	ldr	r7, [pc, r0]
	add	r0, r7, #80
	strb	r6, [r7, #536]
	bl	halide_cond_init(PLT)
	add	r0, r7, #144
	bl	halide_cond_init(PLT)
	add	r0, r7, #208
	bl	halide_cond_init(PLT)
	str	r6, [r7, #64]
	ldr	r0, [r7, #532]
	cmp	r0, #0
	bne	.LBB28_4
@ BB#3:
	ldr	r0, .LCPI28_3
.LPC28_3:
	ldr	r7, [pc, r0]
	bl	_ZN6Halide7Runtime8Internal27default_desired_num_threadsEv(PLT)
	str	r0, [r7, #532]
.LBB28_4:
	bl	_ZN6Halide7Runtime8Internal17clamp_num_threadsEi(PLT)
	ldr	r1, .LCPI28_4
	mov	r2, #1
.LPC28_4:
	ldr	r1, [pc, r1]
	str	r6, [r1, #528]
	str	r0, [r1, #532]
	str	r0, [r1, #68]
	strb	r2, [r1, #537]
.LBB28_5:                               @ %.preheader
	ldr	r10, [r11, #8]
	sub	r1, r0, #1
	cmp	r6, r1
	bge	.LBB28_8
@ BB#6:
	ldr	r0, .LCPI28_5
.LPC28_6:
	ldr	r6, [pc, r0]
	ldr	r0, .LCPI28_6
.LPC28_5:
	ldr	r7, [pc, r0]
.LBB28_7:                               @ %.lr.ph
                                        @ =>This Inner Loop Header: Depth=1
	mov	r0, r6
	mov	r1, #0
	bl	halide_spawn_thread(PLT)
	ldr	r1, [r7, #528]
	add	r2, r7, r1, lsl #2
	add	r1, r1, #1
	str	r1, [r7, #528]
	str	r0, [r2, #272]
	ldr	r0, [r7, #532]
	ldr	r1, [r7, #528]
	sub	r2, r0, #1
	cmp	r1, r2
	blt	.LBB28_7
.LBB28_8:                               @ %._crit_edge
	ldr	r1, .LCPI28_7
	mov	r2, r0
	str	r9, [sp, #8]
	str	r8, [sp, #12]
.LPC28_7:
	ldr	r6, [pc, r1]
	add	r1, r4, r5
	str	r5, [sp, #16]
	str	r1, [sp, #20]
	mov	r1, #0
	str	r10, [sp, #24]
	str	r1, [sp, #32]
	str	r1, [sp, #28]
	ldr	r1, [r6, #64]
	cmp	r1, #0
	moveq	r2, r4
	cmp	r0, r4
	movle	r2, r0
	add	r0, sp, #4
	str	r2, [r6, #72]
	str	r0, [r6, #64]
	add	r0, r6, #144
	str	r1, [sp, #4]
	bl	halide_cond_broadcast(PLT)
	ldr	r0, [r6, #68]
	ldr	r1, [r6, #72]
	cmp	r1, r0
	ble	.LBB28_10
@ BB#9:
	ldr	r0, .LCPI28_8
.LPC28_8:
	ldr	r0, [pc, r0]
	add	r0, r0, #208
	bl	halide_cond_broadcast(PLT)
.LBB28_10:
	add	r0, sp, #4
	bl	_ZN6Halide7Runtime8Internal28worker_thread_already_lockedEPNS1_4workE(PLT)
	ldr	r0, .LCPI28_9
.LPC28_9:
	ldr	r0, [pc, r0]
	bl	halide_mutex_unlock(PLT)
	ldr	r0, [sp, #32]
	sub	sp, r11, #28
	pop	{r4, r5, r6, r7, r8, r9, r10, r11, pc}
	.align	2
@ BB#11:
.LCPI28_0:
.Ltmp13:
	.long	_ZN6Halide7Runtime8Internal10work_queueE(GOT_PREL)-((.LPC28_0+8)-.Ltmp13)
.LCPI28_1:
.Ltmp14:
	.long	_ZN6Halide7Runtime8Internal10work_queueE(GOT_PREL)-((.LPC28_1+8)-.Ltmp14)
.LCPI28_2:
.Ltmp15:
	.long	_ZN6Halide7Runtime8Internal10work_queueE(GOT_PREL)-((.LPC28_2+8)-.Ltmp15)
.LCPI28_3:
.Ltmp16:
	.long	_ZN6Halide7Runtime8Internal10work_queueE(GOT_PREL)-((.LPC28_3+8)-.Ltmp16)
.LCPI28_4:
.Ltmp17:
	.long	_ZN6Halide7Runtime8Internal10work_queueE(GOT_PREL)-((.LPC28_4+8)-.Ltmp17)
.LCPI28_5:
.Ltmp18:
	.long	_ZN6Halide7Runtime8Internal13worker_threadEPv(GOT_PREL)-((.LPC28_6+8)-.Ltmp18)
.LCPI28_6:
.Ltmp19:
	.long	_ZN6Halide7Runtime8Internal10work_queueE(GOT_PREL)-((.LPC28_5+8)-.Ltmp19)
.LCPI28_7:
.Ltmp20:
	.long	_ZN6Halide7Runtime8Internal10work_queueE(GOT_PREL)-((.LPC28_7+8)-.Ltmp20)
.LCPI28_8:
.Ltmp21:
	.long	_ZN6Halide7Runtime8Internal10work_queueE(GOT_PREL)-((.LPC28_8+8)-.Ltmp21)
.LCPI28_9:
.Ltmp22:
	.long	_ZN6Halide7Runtime8Internal10work_queueE(GOT_PREL)-((.LPC28_9+8)-.Ltmp22)
.Lfunc_end28:
	.size	_ZN6Halide7Runtime8Internal18default_do_par_forEPvPFiS2_iPhEiiS3_, .Lfunc_end28-_ZN6Halide7Runtime8Internal18default_do_par_forEPvPFiS2_iPhEiiS3_
	.cantunwind
	.fnend

	.section	.text._ZN6Halide7Runtime8Internal27default_desired_num_threadsEv,"ax",%progbits
	.weak	_ZN6Halide7Runtime8Internal27default_desired_num_threadsEv
	.align	2
	.type	_ZN6Halide7Runtime8Internal27default_desired_num_threadsEv,%function
_ZN6Halide7Runtime8Internal27default_desired_num_threadsEv: @ @_ZN6Halide7Runtime8Internal27default_desired_num_threadsEv
	.fnstart
@ BB#0:
	.save	{r11, lr}
	push	{r11, lr}
	.setfp	r11, sp
	mov	r11, sp
	ldr	r0, .LCPI29_0
.LPC29_0:
	add	r0, pc, r0
	bl	getenv(PLT)
	cmp	r0, #0
	bne	.LBB29_2
@ BB#1:
	ldr	r0, .LCPI29_1
.LPC29_1:
	add	r0, pc, r0
	bl	getenv(PLT)
	cmp	r0, #0
	beq	.LBB29_3
.LBB29_2:                               @ %.thread
	pop	{r11, lr}
	b	atoi(PLT)
.LBB29_3:
	pop	{r11, lr}
	b	halide_host_cpu_count(PLT)
	.align	2
@ BB#4:
.LCPI29_0:
	.long	.L.str.6-(.LPC29_0+8)
.LCPI29_1:
	.long	.L.str.1.7-(.LPC29_1+8)
.Lfunc_end29:
	.size	_ZN6Halide7Runtime8Internal27default_desired_num_threadsEv, .Lfunc_end29-_ZN6Halide7Runtime8Internal27default_desired_num_threadsEv
	.cantunwind
	.fnend

	.section	.text._ZN6Halide7Runtime8Internal17clamp_num_threadsEi,"ax",%progbits
	.weak	_ZN6Halide7Runtime8Internal17clamp_num_threadsEi
	.align	2
	.type	_ZN6Halide7Runtime8Internal17clamp_num_threadsEi,%function
_ZN6Halide7Runtime8Internal17clamp_num_threadsEi: @ @_ZN6Halide7Runtime8Internal17clamp_num_threadsEi
	.fnstart
@ BB#0:
	cmp	r0, #64
	movgt	r0, #64
	bxgt	lr
	cmp	r0, #1
	movwlt	r0, #1
	bx	lr
.Lfunc_end30:
	.size	_ZN6Halide7Runtime8Internal17clamp_num_threadsEi, .Lfunc_end30-_ZN6Halide7Runtime8Internal17clamp_num_threadsEi
	.cantunwind
	.fnend

	.section	.text._ZN6Halide7Runtime8Internal13worker_threadEPv,"ax",%progbits
	.weak	_ZN6Halide7Runtime8Internal13worker_threadEPv
	.align	2
	.type	_ZN6Halide7Runtime8Internal13worker_threadEPv,%function
_ZN6Halide7Runtime8Internal13worker_threadEPv: @ @_ZN6Halide7Runtime8Internal13worker_threadEPv
	.fnstart
@ BB#0:
	.save	{r4, r10, r11, lr}
	push	{r4, r10, r11, lr}
	.setfp	r11, sp, #8
	add	r11, sp, #8
	ldr	r0, .LCPI31_0
.LPC31_0:
	ldr	r4, [pc, r0]
	mov	r0, r4
	bl	halide_mutex_lock(PLT)
	mov	r0, #0
	bl	_ZN6Halide7Runtime8Internal28worker_thread_already_lockedEPNS1_4workE(PLT)
	mov	r0, r4
	pop	{r4, r10, r11, lr}
	b	halide_mutex_unlock(PLT)
	.align	2
@ BB#1:
.LCPI31_0:
.Ltmp23:
	.long	_ZN6Halide7Runtime8Internal10work_queueE(GOT_PREL)-((.LPC31_0+8)-.Ltmp23)
.Lfunc_end31:
	.size	_ZN6Halide7Runtime8Internal13worker_threadEPv, .Lfunc_end31-_ZN6Halide7Runtime8Internal13worker_threadEPv
	.cantunwind
	.fnend

	.section	.text._ZN6Halide7Runtime8Internal28worker_thread_already_lockedEPNS1_4workE,"ax",%progbits
	.weak	_ZN6Halide7Runtime8Internal28worker_thread_already_lockedEPNS1_4workE
	.align	2
	.type	_ZN6Halide7Runtime8Internal28worker_thread_already_lockedEPNS1_4workE,%function
_ZN6Halide7Runtime8Internal28worker_thread_already_lockedEPNS1_4workE: @ @_ZN6Halide7Runtime8Internal28worker_thread_already_lockedEPNS1_4workE
	.fnstart
@ BB#0:
	.save	{r4, r5, r6, r7, r8, r9, r10, r11, lr}
	push	{r4, r5, r6, r7, r8, r9, r10, r11, lr}
	.setfp	r11, sp, #28
	add	r11, sp, #28
	.pad	#28
	sub	sp, sp, #28
	mov	r4, r0
	cmp	r4, #0
	beq	.LBB32_10
@ BB#1:
	ldr	r0, .LCPI32_0
.LPC32_0:
	ldr	r0, [pc, r0]
	str	r0, [sp, #24]           @ 4-byte Spill
	ldr	r0, .LCPI32_4
.LPC32_4:
	ldr	r0, [pc, r0]
	str	r0, [sp, #20]           @ 4-byte Spill
	ldr	r0, .LCPI32_1
.LPC32_1:
	ldr	r0, [pc, r0]
	str	r0, [sp, #16]           @ 4-byte Spill
	ldr	r0, .LCPI32_2
.LPC32_2:
	ldr	r10, [pc, r0]
	ldr	r0, .LCPI32_3
.LPC32_3:
	ldr	r0, [pc, r0]
	add	r0, r0, #80
	str	r0, [sp, #12]           @ 4-byte Spill
	b	.LBB32_3
.LBB32_2:                               @   in Loop: Header=BB32_3 Depth=1
	ldr	r1, [sp, #20]           @ 4-byte Reload
	add	r0, r1, #80
	bl	halide_cond_wait(PLT)
.LBB32_3:                               @ %_ZN6Halide7Runtime8Internal4work7runningEv.exit2.thread.us
                                        @ =>This Inner Loop Header: Depth=1
	ldr	r0, [r4, #12]
	ldr	r1, [r4, #16]
	cmp	r0, r1
	blt	.LBB32_5
@ BB#4:                                 @ %_ZN6Halide7Runtime8Internal4work7runningEv.exit.us
                                        @   in Loop: Header=BB32_3 Depth=1
	ldr	r0, [r4, #24]
	cmp	r0, #1
	blt	.LBB32_20
.LBB32_5:                               @ %_ZN6Halide7Runtime8Internal4work7runningEv.exit.thread.us
                                        @   in Loop: Header=BB32_3 Depth=1
	ldr	r0, [sp, #24]           @ 4-byte Reload
	ldr	r9, [r0, #64]
	cmp	r9, #0
	beq	.LBB32_2
@ BB#6:                                 @   in Loop: Header=BB32_3 Depth=1
	ldmib	r9, {r7, r8}
	ldr	r5, [r9, #12]
	ldr	r6, [r9, #20]
	add	r0, r5, #1
	str	r0, [r9, #12]
	ldr	r1, [r9, #16]
	cmp	r0, r1
	ldreq	r0, [r9]
	ldreq	r1, [sp, #16]           @ 4-byte Reload
	streq	r0, [r1, #64]
	ldr	r0, [r9, #24]
	add	r0, r0, #1
	str	r0, [r9, #24]
	mov	r0, r10
	bl	halide_mutex_unlock(PLT)
	mov	r0, r8
	mov	r1, r7
	mov	r2, r5
	mov	r3, r6
	bl	halide_do_task(PLT)
	mov	r5, r0
	mov	r0, r10
	bl	halide_mutex_lock(PLT)
	cmp	r5, #0
	strne	r5, [r9, #28]
	ldr	r0, [r9, #24]
	sub	r1, r0, #1
	str	r1, [r9, #24]
	ldr	r1, [r9, #12]
	ldr	r2, [r9, #16]
	cmp	r1, r2
	blt	.LBB32_3
@ BB#7:                                 @ %_ZN6Halide7Runtime8Internal4work7runningEv.exit2.us
                                        @   in Loop: Header=BB32_3 Depth=1
	cmp	r9, r4
	beq	.LBB32_3
@ BB#8:                                 @ %_ZN6Halide7Runtime8Internal4work7runningEv.exit2.us
                                        @   in Loop: Header=BB32_3 Depth=1
	cmp	r0, #1
	bgt	.LBB32_3
@ BB#9:                                 @   in Loop: Header=BB32_3 Depth=1
	ldr	r0, [sp, #12]           @ 4-byte Reload
	bl	halide_cond_broadcast(PLT)
	b	.LBB32_3
.LBB32_10:                              @ %_ZN6Halide7Runtime8Internal4work7runningEv.exit2.thread.preheader
	ldr	r0, .LCPI32_5
.LPC32_5:
	ldr	r0, [pc, r0]
	ldrb	r0, [r0, #536]
	cmp	r0, #0
	bne	.LBB32_20
@ BB#11:
	ldr	r0, .LCPI32_6
.LPC32_6:
	ldr	r0, [pc, r0]
	str	r0, [sp, #24]           @ 4-byte Spill
	ldr	r0, .LCPI32_10
.LPC32_10:
	ldr	r0, [pc, r0]
	str	r0, [sp, #20]           @ 4-byte Spill
	ldr	r0, .LCPI32_12
.LPC32_12:
	ldr	r0, [pc, r0]
	str	r0, [sp, #8]            @ 4-byte Spill
	ldr	r0, .LCPI32_11
.LPC32_11:
	ldr	r0, [pc, r0]
	str	r0, [sp, #4]            @ 4-byte Spill
	ldr	r0, .LCPI32_13
.LPC32_13:
	ldr	r10, [pc, r0]
	ldr	r0, .LCPI32_7
.LPC32_7:
	ldr	r0, [pc, r0]
	str	r0, [sp, #16]           @ 4-byte Spill
	ldr	r0, .LCPI32_8
.LPC32_8:
	ldr	r6, [pc, r0]
	ldr	r0, .LCPI32_9
.LPC32_9:
	ldr	r0, [pc, r0]
	add	r0, r0, #80
	str	r0, [sp, #12]           @ 4-byte Spill
.LBB32_12:                              @ %_ZN6Halide7Runtime8Internal4work7runningEv.exit.thread
                                        @ =>This Inner Loop Header: Depth=1
	ldr	r0, [sp, #24]           @ 4-byte Reload
	ldr	r9, [r0, #64]
	cmp	r9, #0
	beq	.LBB32_16
@ BB#13:                                @   in Loop: Header=BB32_12 Depth=1
	ldmib	r9, {r7, r8}
	ldr	r5, [r9, #12]
	ldr	r4, [r9, #20]
	add	r0, r5, #1
	str	r0, [r9, #12]
	ldr	r1, [r9, #16]
	cmp	r0, r1
	ldreq	r0, [r9]
	ldreq	r1, [sp, #16]           @ 4-byte Reload
	streq	r0, [r1, #64]
	ldr	r0, [r9, #24]
	add	r0, r0, #1
	str	r0, [r9, #24]
	mov	r0, r6
	bl	halide_mutex_unlock(PLT)
	mov	r0, r8
	mov	r1, r7
	mov	r2, r5
	mov	r3, r4
	bl	halide_do_task(PLT)
	mov	r4, r0
	mov	r0, r6
	bl	halide_mutex_lock(PLT)
	cmp	r4, #0
	strne	r4, [r9, #28]
	ldr	r0, [r9, #24]
	subs	r0, r0, #1
	str	r0, [r9, #24]
	bgt	.LBB32_19
@ BB#14:                                @   in Loop: Header=BB32_12 Depth=1
	ldr	r0, [r9, #12]
	ldr	r1, [r9, #16]
	cmp	r0, r1
	blt	.LBB32_19
@ BB#15:                                @   in Loop: Header=BB32_12 Depth=1
	ldr	r0, [sp, #12]           @ 4-byte Reload
	bl	halide_cond_broadcast(PLT)
	b	.LBB32_19
.LBB32_16:                              @   in Loop: Header=BB32_12 Depth=1
	ldr	r1, [sp, #20]           @ 4-byte Reload
	ldr	r0, [r1, #68]
	ldr	r1, [r1, #72]
	cmp	r0, r1
	ble	.LBB32_18
@ BB#17:                                @   in Loop: Header=BB32_12 Depth=1
	ldr	r4, [sp, #8]            @ 4-byte Reload
	sub	r0, r0, #1
	str	r0, [r4, #68]
	add	r0, r4, #208
	mov	r1, r4
	bl	halide_cond_wait(PLT)
	ldr	r0, [r4, #68]
	add	r0, r0, #1
	str	r0, [r4, #68]
	b	.LBB32_19
.LBB32_18:                              @   in Loop: Header=BB32_12 Depth=1
	ldr	r1, [sp, #4]            @ 4-byte Reload
	add	r0, r1, #144
	bl	halide_cond_wait(PLT)
.LBB32_19:                              @ %_ZN6Halide7Runtime8Internal4work7runningEv.exit2.thread.backedge
                                        @   in Loop: Header=BB32_12 Depth=1
	ldrb	r0, [r10, #536]
	cmp	r0, #0
	beq	.LBB32_12
.LBB32_20:                              @ %.us-lcssa.us
	sub	sp, r11, #28
	pop	{r4, r5, r6, r7, r8, r9, r10, r11, pc}
	.align	2
@ BB#21:
.LCPI32_0:
.Ltmp24:
	.long	_ZN6Halide7Runtime8Internal10work_queueE(GOT_PREL)-((.LPC32_0+8)-.Ltmp24)
.LCPI32_1:
.Ltmp25:
	.long	_ZN6Halide7Runtime8Internal10work_queueE(GOT_PREL)-((.LPC32_1+8)-.Ltmp25)
.LCPI32_2:
.Ltmp26:
	.long	_ZN6Halide7Runtime8Internal10work_queueE(GOT_PREL)-((.LPC32_2+8)-.Ltmp26)
.LCPI32_3:
.Ltmp27:
	.long	_ZN6Halide7Runtime8Internal10work_queueE(GOT_PREL)-((.LPC32_3+8)-.Ltmp27)
.LCPI32_4:
.Ltmp28:
	.long	_ZN6Halide7Runtime8Internal10work_queueE(GOT_PREL)-((.LPC32_4+8)-.Ltmp28)
.LCPI32_5:
.Ltmp29:
	.long	_ZN6Halide7Runtime8Internal10work_queueE(GOT_PREL)-((.LPC32_5+8)-.Ltmp29)
.LCPI32_6:
.Ltmp30:
	.long	_ZN6Halide7Runtime8Internal10work_queueE(GOT_PREL)-((.LPC32_6+8)-.Ltmp30)
.LCPI32_7:
.Ltmp31:
	.long	_ZN6Halide7Runtime8Internal10work_queueE(GOT_PREL)-((.LPC32_7+8)-.Ltmp31)
.LCPI32_8:
.Ltmp32:
	.long	_ZN6Halide7Runtime8Internal10work_queueE(GOT_PREL)-((.LPC32_8+8)-.Ltmp32)
.LCPI32_9:
.Ltmp33:
	.long	_ZN6Halide7Runtime8Internal10work_queueE(GOT_PREL)-((.LPC32_9+8)-.Ltmp33)
.LCPI32_10:
.Ltmp34:
	.long	_ZN6Halide7Runtime8Internal10work_queueE(GOT_PREL)-((.LPC32_10+8)-.Ltmp34)
.LCPI32_11:
.Ltmp35:
	.long	_ZN6Halide7Runtime8Internal10work_queueE(GOT_PREL)-((.LPC32_11+8)-.Ltmp35)
.LCPI32_12:
.Ltmp36:
	.long	_ZN6Halide7Runtime8Internal10work_queueE(GOT_PREL)-((.LPC32_12+8)-.Ltmp36)
.LCPI32_13:
.Ltmp37:
	.long	_ZN6Halide7Runtime8Internal10work_queueE(GOT_PREL)-((.LPC32_13+8)-.Ltmp37)
.Lfunc_end32:
	.size	_ZN6Halide7Runtime8Internal28worker_thread_already_lockedEPNS1_4workE, .Lfunc_end32-_ZN6Halide7Runtime8Internal28worker_thread_already_lockedEPNS1_4workE
	.cantunwind
	.fnend

	.section	.text.halide_do_task,"ax",%progbits
	.weak	halide_do_task
	.align	2
	.type	halide_do_task,%function
halide_do_task:                         @ @halide_do_task
	.fnstart
@ BB#0:
	ldr	r12, .LCPI33_0
.LPC33_0:
	ldr	r12, [pc, r12]
	ldr	r12, [r12]
	bx	r12
	.align	2
@ BB#1:
.LCPI33_0:
.Ltmp38:
	.long	custom_do_task(GOT_PREL)-((.LPC33_0+8)-.Ltmp38)
.Lfunc_end33:
	.size	halide_do_task, .Lfunc_end33-halide_do_task
	.cantunwind
	.fnend

	.section	.text.halide_thread_pool_cleanup,"ax",%progbits
	.weak	halide_thread_pool_cleanup
	.align	2
	.type	halide_thread_pool_cleanup,%function
halide_thread_pool_cleanup:             @ @halide_thread_pool_cleanup
	.fnstart
@ BB#0:
	b	halide_shutdown_thread_pool(PLT)
.Lfunc_end34:
	.size	halide_thread_pool_cleanup, .Lfunc_end34-halide_thread_pool_cleanup
	.cantunwind
	.fnend

	.section	.text.halide_shutdown_thread_pool,"ax",%progbits
	.weak	halide_shutdown_thread_pool
	.align	2
	.type	halide_shutdown_thread_pool,%function
halide_shutdown_thread_pool:            @ @halide_shutdown_thread_pool
	.fnstart
@ BB#0:
	ldr	r0, .LCPI35_0
.LPC35_0:
	ldr	r0, [pc, r0]
	ldrb	r0, [r0, #537]
	cmp	r0, #0
	bxeq	lr
	.save	{r4, r5, r11, lr}
	push	{r4, r5, r11, lr}
	.setfp	r11, sp, #8
	add	r11, sp, #8
	ldr	r0, .LCPI35_1
.LPC35_1:
	ldr	r4, [pc, r0]
	mov	r0, r4
	bl	halide_mutex_lock(PLT)
	mov	r0, #1
	strb	r0, [r4, #536]
	add	r0, r4, #80
	bl	halide_cond_broadcast(PLT)
	add	r0, r4, #144
	bl	halide_cond_broadcast(PLT)
	add	r0, r4, #208
	bl	halide_cond_broadcast(PLT)
	mov	r0, r4
	bl	halide_mutex_unlock(PLT)
	ldr	r0, [r4, #528]
	cmp	r0, #0
	ble	.LBB35_3
@ BB#1:
	ldr	r0, .LCPI35_2
	mov	r4, #0
.LPC35_2:
	ldr	r5, [pc, r0]
.LBB35_2:                               @ %.lr.ph
                                        @ =>This Inner Loop Header: Depth=1
	add	r0, r5, r4, lsl #2
	ldr	r0, [r0, #272]
	bl	halide_join_thread(PLT)
	ldr	r0, [r5, #528]
	add	r4, r4, #1
	cmp	r4, r0
	blt	.LBB35_2
.LBB35_3:                               @ %._crit_edge
	ldr	r0, .LCPI35_3
.LPC35_3:
	ldr	r4, [pc, r0]
	mov	r0, r4
	bl	halide_mutex_destroy(PLT)
	add	r0, r4, #80
	bl	halide_cond_destroy(PLT)
	add	r0, r4, #144
	bl	halide_cond_destroy(PLT)
	add	r0, r4, #208
	bl	halide_cond_destroy(PLT)
	mov	r0, #0
	strb	r0, [r4, #537]
	pop	{r4, r5, r11, lr}
	bx	lr
	.align	2
@ BB#4:
.LCPI35_0:
.Ltmp39:
	.long	_ZN6Halide7Runtime8Internal10work_queueE(GOT_PREL)-((.LPC35_0+8)-.Ltmp39)
.LCPI35_1:
.Ltmp40:
	.long	_ZN6Halide7Runtime8Internal10work_queueE(GOT_PREL)-((.LPC35_1+8)-.Ltmp40)
.LCPI35_2:
.Ltmp41:
	.long	_ZN6Halide7Runtime8Internal10work_queueE(GOT_PREL)-((.LPC35_2+8)-.Ltmp41)
.LCPI35_3:
.Ltmp42:
	.long	_ZN6Halide7Runtime8Internal10work_queueE(GOT_PREL)-((.LPC35_3+8)-.Ltmp42)
.Lfunc_end35:
	.size	halide_shutdown_thread_pool, .Lfunc_end35-halide_shutdown_thread_pool
	.cantunwind
	.fnend

	.section	.text.halide_set_num_threads,"ax",%progbits
	.weak	halide_set_num_threads
	.align	2
	.type	halide_set_num_threads,%function
halide_set_num_threads:                 @ @halide_set_num_threads
	.fnstart
@ BB#0:
	.save	{r4, r5, r6, r10, r11, lr}
	push	{r4, r5, r6, r10, r11, lr}
	.setfp	r11, sp, #16
	add	r11, sp, #16
	mov	r4, r0
	cmp	r4, #0
	blt	.LBB36_3
@ BB#1:
	ldr	r0, .LCPI36_0
.LPC36_0:
	ldr	r0, [pc, r0]
	bl	halide_mutex_lock(PLT)
	cmp	r4, #0
	bne	.LBB36_4
@ BB#2:
	bl	_ZN6Halide7Runtime8Internal27default_desired_num_threadsEv(PLT)
	mov	r4, r0
	b	.LBB36_4
.LBB36_3:                               @ %.thread
	ldr	r0, .LCPI36_1
.LPC36_2:
	add	r1, pc, r0
	mov	r0, #0
	bl	halide_error(PLT)
	ldr	r0, .LCPI36_2
.LPC36_1:
	ldr	r0, [pc, r0]
	bl	halide_mutex_lock(PLT)
.LBB36_4:
	ldr	r0, .LCPI36_3
.LPC36_3:
	ldr	r5, [pc, r0]
	mov	r0, r4
	ldr	r6, [r5, #532]
	bl	_ZN6Halide7Runtime8Internal17clamp_num_threadsEi(PLT)
	str	r0, [r5, #532]
	mov	r0, r5
	bl	halide_mutex_unlock(PLT)
	mov	r0, r6
	pop	{r4, r5, r6, r10, r11, pc}
	.align	2
@ BB#5:
.LCPI36_0:
.Ltmp43:
	.long	_ZN6Halide7Runtime8Internal10work_queueE(GOT_PREL)-((.LPC36_0+8)-.Ltmp43)
.LCPI36_1:
	.long	.L.str.2-(.LPC36_2+8)
.LCPI36_2:
.Ltmp44:
	.long	_ZN6Halide7Runtime8Internal10work_queueE(GOT_PREL)-((.LPC36_1+8)-.Ltmp44)
.LCPI36_3:
.Ltmp45:
	.long	_ZN6Halide7Runtime8Internal10work_queueE(GOT_PREL)-((.LPC36_3+8)-.Ltmp45)
.Lfunc_end36:
	.size	halide_set_num_threads, .Lfunc_end36-halide_set_num_threads
	.cantunwind
	.fnend

	.section	.text.halide_set_custom_do_task,"ax",%progbits
	.weak	halide_set_custom_do_task
	.align	2
	.type	halide_set_custom_do_task,%function
halide_set_custom_do_task:              @ @halide_set_custom_do_task
	.fnstart
@ BB#0:
	ldr	r1, .LCPI37_0
.LPC37_0:
	ldr	r2, [pc, r1]
	ldr	r1, [r2]
	str	r0, [r2]
	mov	r0, r1
	bx	lr
	.align	2
@ BB#1:
.LCPI37_0:
.Ltmp46:
	.long	custom_do_task(GOT_PREL)-((.LPC37_0+8)-.Ltmp46)
.Lfunc_end37:
	.size	halide_set_custom_do_task, .Lfunc_end37-halide_set_custom_do_task
	.cantunwind
	.fnend

	.section	.text.halide_set_custom_do_par_for,"ax",%progbits
	.weak	halide_set_custom_do_par_for
	.align	2
	.type	halide_set_custom_do_par_for,%function
halide_set_custom_do_par_for:           @ @halide_set_custom_do_par_for
	.fnstart
@ BB#0:
	ldr	r1, .LCPI38_0
.LPC38_0:
	ldr	r2, [pc, r1]
	ldr	r1, [r2]
	str	r0, [r2]
	mov	r0, r1
	bx	lr
	.align	2
@ BB#1:
.LCPI38_0:
.Ltmp47:
	.long	custom_do_par_for(GOT_PREL)-((.LPC38_0+8)-.Ltmp47)
.Lfunc_end38:
	.size	halide_set_custom_do_par_for, .Lfunc_end38-halide_set_custom_do_par_for
	.cantunwind
	.fnend

	.section	.text.halide_do_par_for,"ax",%progbits
	.weak	halide_do_par_for
	.align	2
	.type	halide_do_par_for,%function
halide_do_par_for:                      @ @halide_do_par_for
	.fnstart
@ BB#0:
	ldr	r12, .LCPI39_0
.LPC39_0:
	ldr	r12, [pc, r12]
	ldr	r12, [r12]
	bx	r12
	.align	2
@ BB#1:
.LCPI39_0:
.Ltmp48:
	.long	custom_do_par_for(GOT_PREL)-((.LPC39_0+8)-.Ltmp48)
.Lfunc_end39:
	.size	halide_do_par_for, .Lfunc_end39-halide_do_par_for
	.cantunwind
	.fnend

	.section	.text.halide_get_symbol,"ax",%progbits
	.weak	halide_get_symbol
	.align	2
	.type	halide_get_symbol,%function
halide_get_symbol:                      @ @halide_get_symbol
	.fnstart
@ BB#0:
	mov	r1, r0
	mov	r0, #0
	b	dlsym(PLT)
.Lfunc_end40:
	.size	halide_get_symbol, .Lfunc_end40-halide_get_symbol
	.cantunwind
	.fnend

	.section	.text.halide_load_library,"ax",%progbits
	.weak	halide_load_library
	.align	2
	.type	halide_load_library,%function
halide_load_library:                    @ @halide_load_library
	.fnstart
@ BB#0:
	.save	{r4, r10, r11, lr}
	push	{r4, r10, r11, lr}
	.setfp	r11, sp, #8
	add	r11, sp, #8
	mov	r1, #1
	bl	dlopen(PLT)
	mov	r4, r0
	cmp	r4, #0
	bne	.LBB41_2
@ BB#1:
	bl	dlerror(PLT)
.LBB41_2:
	mov	r0, r4
	pop	{r4, r10, r11, pc}
.Lfunc_end41:
	.size	halide_load_library, .Lfunc_end41-halide_load_library
	.cantunwind
	.fnend

	.section	.text.halide_get_library_symbol,"ax",%progbits
	.weak	halide_get_library_symbol
	.align	2
	.type	halide_get_library_symbol,%function
halide_get_library_symbol:              @ @halide_get_library_symbol
	.fnstart
@ BB#0:
	b	dlsym(PLT)
.Lfunc_end42:
	.size	halide_get_library_symbol, .Lfunc_end42-halide_get_library_symbol
	.cantunwind
	.fnend

	.section	.text.halide_profiler_shutdown,"ax",%progbits
	.weak	halide_profiler_shutdown
	.align	2
	.type	halide_profiler_shutdown,%function
halide_profiler_shutdown:               @ @halide_profiler_shutdown
	.fnstart
@ BB#0:
	.save	{r11, lr}
	push	{r11, lr}
	.setfp	r11, sp
	mov	r11, sp
	bl	halide_profiler_get_state(PLT)
	mov	r1, r0
	ldrb	r0, [r1, #88]
	cmp	r0, #0
	popeq	{r11, pc}
	mvn	r0, #1
	str	r0, [r1, #72]
.LBB43_1:                               @ =>This Inner Loop Header: Depth=1
	dmb	ish
	ldrb	r0, [r1, #88]
	cmp	r0, #0
	bne	.LBB43_1
@ BB#2:
	mvn	r0, #0
	str	r0, [r1, #72]
	mov	r0, #0
	pop	{r11, lr}
	b	halide_profiler_report_unlocked(PLT)
.Lfunc_end43:
	.size	halide_profiler_shutdown, .Lfunc_end43-halide_profiler_shutdown
	.cantunwind
	.fnend

	.section	.text.halide_profiler_get_state,"ax",%progbits
	.weak	halide_profiler_get_state
	.align	2
	.type	halide_profiler_get_state,%function
halide_profiler_get_state:              @ @halide_profiler_get_state
	.fnstart
@ BB#0:
	ldr	r0, .LCPI44_0
.LPC44_0:
	add	r0, pc, r0
	bx	lr
	.align	2
@ BB#1:
.LCPI44_0:
	.long	_ZZ25halide_profiler_get_stateE1s-(.LPC44_0+8)
.Lfunc_end44:
	.size	halide_profiler_get_state, .Lfunc_end44-halide_profiler_get_state
	.cantunwind
	.fnend

	.section	.text.halide_profiler_report_unlocked,"ax",%progbits
	.weak	halide_profiler_report_unlocked
	.align	3
	.type	halide_profiler_report_unlocked,%function
halide_profiler_report_unlocked:        @ @halide_profiler_report_unlocked
	.fnstart
@ BB#0:
	.save	{r4, r5, r6, r7, r8, r9, r10, r11, lr}
	push	{r4, r5, r6, r7, r8, r9, r10, r11, lr}
	.setfp	r11, sp, #28
	add	r11, sp, #28
	.pad	#4
	sub	sp, sp, #4
	.vsave	{d8, d9, d10}
	vpush	{d8, d9, d10}
	.pad	#152
	sub	sp, sp, #152
	.pad	#1024
	sub	sp, sp, #1024
	mov	r9, #0
	str	r0, [sp, #128]          @ 4-byte Spill
	strb	r9, [sp, #1171]
	ldr	r10, [r1, #80]
	cmp	r10, #0
	beq	.LBB45_47
@ BB#1:
	movw	r0, #1023
	add	r8, sp, #148
	add	r6, r8, r0
	ldr	r0, .LCPI45_1
	vldr	d9, .LCPI45_31
.LPC45_6:
	add	r0, pc, r0
	vldr	s16, .LCPI45_32
	str	r0, [sp, #52]           @ 4-byte Spill
	ldr	r0, .LCPI45_2
.LPC45_5:
	add	r0, pc, r0
	str	r0, [sp, #48]           @ 4-byte Spill
	ldr	r0, .LCPI45_3
.LPC45_4:
	add	r0, pc, r0
	str	r0, [sp, #44]           @ 4-byte Spill
	ldr	r0, .LCPI45_4
.LPC45_3:
	add	r0, pc, r0
	str	r0, [sp, #40]           @ 4-byte Spill
	ldr	r0, .LCPI45_5
.LPC45_2:
	add	r0, pc, r0
	str	r0, [sp, #36]           @ 4-byte Spill
	ldr	r0, .LCPI45_6
.LPC45_1:
	add	r0, pc, r0
	str	r0, [sp, #32]           @ 4-byte Spill
	ldr	r0, .LCPI45_7
.LPC45_0:
	add	r0, pc, r0
	str	r0, [sp, #28]           @ 4-byte Spill
	ldr	r0, .LCPI45_11
.LPC45_11:
	add	r0, pc, r0
	str	r0, [sp, #24]           @ 4-byte Spill
	ldr	r0, .LCPI45_12
.LPC45_10:
	add	r0, pc, r0
	str	r0, [sp, #20]           @ 4-byte Spill
	ldr	r0, .LCPI45_13
.LPC45_9:
	add	r0, pc, r0
	str	r0, [sp, #16]           @ 4-byte Spill
	ldr	r0, .LCPI45_14
.LPC45_13:
	add	r0, pc, r0
	str	r0, [sp, #116]          @ 4-byte Spill
	ldr	r0, .LCPI45_15
.LPC45_12:
	add	r0, pc, r0
	str	r0, [sp, #112]          @ 4-byte Spill
	ldr	r0, .LCPI45_16
.LPC45_14:
	add	r7, pc, r0
	ldr	r0, .LCPI45_17
	str	r7, [sp, #120]          @ 4-byte Spill
.LPC45_15:
	add	r0, pc, r0
	str	r0, [sp, #108]          @ 4-byte Spill
	ldr	r0, .LCPI45_18
.LPC45_16:
	add	r0, pc, r0
	str	r0, [sp, #104]          @ 4-byte Spill
	ldr	r0, .LCPI45_19
.LPC45_18:
	add	r0, pc, r0
	str	r0, [sp, #100]          @ 4-byte Spill
	ldr	r0, .LCPI45_20
.LPC45_17:
	add	r0, pc, r0
	str	r0, [sp, #96]           @ 4-byte Spill
	ldr	r0, .LCPI45_21
.LPC45_19:
	add	r0, pc, r0
	str	r0, [sp, #92]           @ 4-byte Spill
	ldr	r0, .LCPI45_30
.LPC45_28:
	add	r0, pc, r0
	str	r0, [sp, #88]           @ 4-byte Spill
	ldr	r0, .LCPI45_29
.LPC45_27:
	add	r0, pc, r0
	str	r0, [sp, #84]           @ 4-byte Spill
	ldr	r0, .LCPI45_24
.LPC45_22:
	add	r0, pc, r0
	str	r0, [sp, #80]           @ 4-byte Spill
	ldr	r0, .LCPI45_25
.LPC45_23:
	add	r0, pc, r0
	str	r0, [sp, #76]           @ 4-byte Spill
	ldr	r0, .LCPI45_26
.LPC45_24:
	add	r0, pc, r0
	str	r0, [sp, #72]           @ 4-byte Spill
	ldr	r0, .LCPI45_27
.LPC45_25:
	add	r0, pc, r0
	str	r0, [sp, #68]           @ 4-byte Spill
	ldr	r0, .LCPI45_28
.LPC45_26:
	add	r0, pc, r0
	str	r0, [sp, #64]           @ 4-byte Spill
	ldr	r0, .LCPI45_22
.LPC45_20:
	add	r0, pc, r0
	str	r0, [sp, #60]           @ 4-byte Spill
	ldr	r0, .LCPI45_23
.LPC45_21:
	add	r0, pc, r0
	str	r0, [sp, #56]           @ 4-byte Spill
	ldr	r0, .LCPI45_9
.LPC45_8:
	add	r0, pc, r0
	str	r0, [sp, #12]           @ 4-byte Spill
	ldr	r0, .LCPI45_10
.LPC45_7:
	add	r0, pc, r0
	str	r0, [sp, #8]            @ 4-byte Spill
	b	.LBB45_4
	.align	3
@ BB#2:
.LCPI45_31:
	.long	3654794683              @ double 1.0E-10
	.long	1037794527
	.align	2
@ BB#3:
.LCPI45_32:
	.long	1232348160              @ float 1.0E+6
.LBB45_4:                               @ %.lr.ph65
                                        @ =>This Loop Header: Depth=1
                                        @     Child Loop BB45_11 Depth 2
                                        @     Child Loop BB45_16 Depth 2
                                        @       Child Loop BB45_19 Depth 3
                                        @       Child Loop BB45_23 Depth 3
                                        @       Child Loop BB45_27 Depth 3
                                        @       Child Loop BB45_32 Depth 3
                                        @       Child Loop BB45_37 Depth 3
                                        @       Child Loop BB45_39 Depth 3
	ldrd	r0, r1, [r10]
	str	r10, [sp, #132]         @ 4-byte Spill
	ldr	r4, [r10, #68]
	bl	__aeabi_ul2f(PLT)
	cmp	r4, #0
	beq	.LBB45_46
@ BB#5:                                 @ %_ZN6Halide7Runtime8Internal12_GLOBAL__N_17PrinterILi2ELy1024EE5clearEv.exit
                                        @   in Loop: Header=BB45_4 Depth=1
	strb	r9, [sp, #148]
	mov	r1, r6
	vmov	s0, r0
	ldr	r0, [r10, #32]
	ldr	r2, [r10, #48]
	vdiv.f32	s20, s0, s16
	str	r0, [sp, #144]          @ 4-byte Spill
	ldr	r0, [r10, #36]
	ldr	r5, [r10, #40]
	ldr	r9, [r10, #44]
	str	r0, [sp, #140]          @ 4-byte Spill
	mov	r0, r8
	bl	halide_string_to_string(PLT)
	ldr	r2, [sp, #52]           @ 4-byte Reload
	mov	r1, r6
	bl	halide_string_to_string(PLT)
	ldr	r2, [sp, #48]           @ 4-byte Reload
	mov	r1, r6
	bl	halide_string_to_string(PLT)
	vcvt.f64.f32	d0, s20
	mov	r1, r6
	mov	r2, #0
	bl	halide_double_to_string(PLT)
	ldr	r2, [sp, #44]           @ 4-byte Reload
	mov	r1, r6
	bl	halide_string_to_string(PLT)
	ldr	r2, [sp, #40]           @ 4-byte Reload
	mov	r1, r6
	bl	halide_string_to_string(PLT)
	ldr	r2, [r10, #72]
	mov	r1, #1
	mov	r4, r1
	mov	r1, r6
	str	r4, [sp]
	asr	r3, r2, #31
	bl	halide_int64_to_string(PLT)
	ldr	r2, [sp, #36]           @ 4-byte Reload
	mov	r1, r6
	bl	halide_string_to_string(PLT)
	ldr	r2, [r10, #68]
	mov	r1, r6
	str	r4, [sp]
	asr	r3, r2, #31
	bl	halide_int64_to_string(PLT)
	ldr	r2, [sp, #32]           @ 4-byte Reload
	mov	r1, r6
	bl	halide_string_to_string(PLT)
	ldr	r1, [r10, #68]
	mov	r2, #0
	vmov	s0, r1
	mov	r1, r6
	vcvt.f32.s32	s0, s0
	vdiv.f32	s0, s20, s0
	vcvt.f64.f32	d0, s0
	bl	halide_double_to_string(PLT)
	ldr	r2, [sp, #28]           @ 4-byte Reload
	mov	r1, r6
	bl	halide_string_to_string(PLT)
	ldr	r2, [sp, #144]          @ 4-byte Reload
	mov	r4, r0
	ldr	r1, [sp, #140]          @ 4-byte Reload
	eor	r3, r2, r5
	eor	r0, r1, r9
	orrs	r0, r3, r0
	str	r0, [sp, #124]          @ 4-byte Spill
	beq	.LBB45_7
@ BB#6:                                 @   in Loop: Header=BB45_4 Depth=1
	mov	r0, r2
	bl	__aeabi_ul2d(PLT)
	str	r0, [sp, #144]          @ 4-byte Spill
	mov	r7, r1
	mov	r0, r5
	mov	r1, r9
	bl	__aeabi_ul2d(PLT)
	vmov	d16, r0, r1
	mov	r1, r6
	ldr	r0, [sp, #144]          @ 4-byte Reload
	vadd.f64	d16, d16, d9
	ldr	r2, [sp, #12]           @ 4-byte Reload
	vmov	d17, r0, r7
	mov	r0, r4
	ldr	r7, [sp, #120]          @ 4-byte Reload
	vdiv.f64	d16, d17, d16
	vcvt.f32.f64	s20, d16
	bl	halide_string_to_string(PLT)
	vcvt.f64.f32	d0, s20
	mov	r1, r6
	mov	r2, #0
	bl	halide_double_to_string(PLT)
	ldr	r2, [sp, #8]            @ 4-byte Reload
	mov	r1, r6
	bl	halide_string_to_string(PLT)
	mov	r4, r0
.LBB45_7:                               @   in Loop: Header=BB45_4 Depth=1
	ldr	r2, [sp, #24]           @ 4-byte Reload
	mov	r0, r4
	mov	r1, r6
	mov	r9, #0
	bl	halide_string_to_string(PLT)
	ldr	r2, [r10, #76]
	mov	r5, #1
	mov	r1, r6
	str	r5, [sp]
	asr	r3, r2, #31
	bl	halide_int64_to_string(PLT)
	ldr	r2, [sp, #20]           @ 4-byte Reload
	mov	r1, r6
	bl	halide_string_to_string(PLT)
	ldrd	r2, r3, [r10, #16]
	mov	r1, r6
	str	r5, [sp]
	bl	halide_uint64_to_string(PLT)
	ldr	r2, [sp, #16]           @ 4-byte Reload
	mov	r1, r6
	bl	halide_string_to_string(PLT)
	ldr	r0, [sp, #128]          @ 4-byte Reload
	mov	r1, r8
	bl	halide_print(PLT)
	ldrd	r0, r1, [r10]
	orrs	r0, r0, r1
	bne	.LBB45_14
@ BB#8:                                 @   in Loop: Header=BB45_4 Depth=1
	ldrd	r0, r1, [r10, #24]
	orrs	r0, r0, r1
	bne	.LBB45_14
@ BB#9:                                 @ %.preheader
                                        @   in Loop: Header=BB45_4 Depth=1
	ldr	r0, [r10, #60]
	cmp	r0, #1
	blt	.LBB45_46
@ BB#10:                                @ %.lr.ph
                                        @   in Loop: Header=BB45_4 Depth=1
	ldr	r1, [r10, #52]
	mov	r12, r7
	mov	r3, #1
	add	r2, r1, #32
	mov	r1, #0
.LBB45_11:                              @   Parent Loop BB45_4 Depth=1
                                        @ =>  This Inner Loop Header: Depth=2
	ldm	r2, {r4, r7}
	orrs	r7, r4, r7
	movwne	r7, #1
	orr	r1, r1, r7
	bne	.LBB45_13
@ BB#12:                                @   in Loop: Header=BB45_11 Depth=2
	add	r7, r3, #1
	cmp	r3, r0
	add	r2, r2, #64
	mov	r3, r7
	blt	.LBB45_11
.LBB45_13:                              @ %._crit_edge
                                        @   in Loop: Header=BB45_4 Depth=1
	mov	r7, r12
	tst	r1, #1
	beq	.LBB45_46
.LBB45_14:                              @ %.thread19.preheader
                                        @   in Loop: Header=BB45_4 Depth=1
	ldr	r0, [r10, #60]
	cmp	r0, #1
	blt	.LBB45_46
@ BB#15:                                @ %_ZN6Halide7Runtime8Internal12_GLOBAL__N_17PrinterILi2ELy1024EE5clearEv.exit16.lr.ph
                                        @   in Loop: Header=BB45_4 Depth=1
	mov	r4, #0
.LBB45_16:                              @ %_ZN6Halide7Runtime8Internal12_GLOBAL__N_17PrinterILi2ELy1024EE5clearEv.exit16
                                        @   Parent Loop BB45_4 Depth=1
                                        @ =>  This Loop Header: Depth=2
                                        @       Child Loop BB45_19 Depth 3
                                        @       Child Loop BB45_23 Depth 3
                                        @       Child Loop BB45_27 Depth 3
                                        @       Child Loop BB45_32 Depth 3
                                        @       Child Loop BB45_37 Depth 3
                                        @       Child Loop BB45_39 Depth 3
	strb	r9, [sp, #148]
	cmp	r4, #0
	ldr	r0, [r10, #52]
	add	r3, r0, r4, lsl #6
	bne	.LBB45_18
@ BB#17:                                @   in Loop: Header=BB45_16 Depth=2
	ldrd	r0, r1, [r3]
	orrs	r0, r0, r1
	beq	.LBB45_45
.LBB45_18:                              @   in Loop: Header=BB45_16 Depth=2
	ldr	r2, [sp, #116]          @ 4-byte Reload
	mov	r0, r8
	str	r4, [sp, #140]          @ 4-byte Spill
	mov	r1, r6
	mov	r4, r3
	str	r4, [sp, #144]          @ 4-byte Spill
	bl	halide_string_to_string(PLT)
	ldr	r2, [r4, #56]
	mov	r1, r6
	bl	halide_string_to_string(PLT)
	ldr	r2, [sp, #112]          @ 4-byte Reload
	mov	r1, r6
	bl	halide_string_to_string(PLT)
	mov	r4, r0
	sub	r0, r4, r8
	cmp	r0, #24
	bhi	.LBB45_20
.LBB45_19:                              @ %.lr.ph30
                                        @   Parent Loop BB45_4 Depth=1
                                        @     Parent Loop BB45_16 Depth=2
                                        @ =>    This Inner Loop Header: Depth=3
	mov	r0, r4
	mov	r1, r6
	mov	r2, r7
	bl	halide_string_to_string(PLT)
	mov	r4, r0
	sub	r0, r4, r8
	cmp	r0, #25
	blo	.LBB45_19
.LBB45_20:                              @ %._crit_edge31
                                        @   in Loop: Header=BB45_16 Depth=2
	vldr	s0, [r10, #68]
	vcvt.f32.s32	s0, s0
	ldr	r0, [sp, #144]          @ 4-byte Reload
	ldrd	r0, r1, [r0]
	vmul.f32	s20, s0, s16
	bl	__aeabi_ul2f(PLT)
	vmov	s0, r0
	mov	r0, r4
	vdiv.f32	s0, s0, s20
	mov	r1, r6
	mov	r2, #0
	mov	r7, #0
	vcvt.f64.f32	d0, s0
	bl	halide_double_to_string(PLT)
	cmp	r0, #0
	beq	.LBB45_22
@ BB#21:                                @   in Loop: Header=BB45_16 Depth=2
	sub	r7, r0, #3
	cmp	r7, r8
	movlo	r7, r8
	strb	r9, [r7]
.LBB45_22:                              @ %_ZN6Halide7Runtime8Internal12_GLOBAL__N_17PrinterILi2ELy1024EE5eraseEi.exit
                                        @   in Loop: Header=BB45_16 Depth=2
	ldr	r2, [sp, #108]          @ 4-byte Reload
	mov	r0, r7
	mov	r1, r6
	bl	halide_string_to_string(PLT)
	ldr	r7, [sp, #104]          @ 4-byte Reload
	mov	r4, r0
	sub	r0, r4, r8
	cmp	r0, #34
	bhi	.LBB45_24
.LBB45_23:                              @ %.lr.ph34
                                        @   Parent Loop BB45_4 Depth=1
                                        @     Parent Loop BB45_16 Depth=2
                                        @ =>    This Inner Loop Header: Depth=3
	mov	r0, r4
	mov	r1, r6
	mov	r2, r7
	bl	halide_string_to_string(PLT)
	mov	r4, r0
	sub	r0, r4, r8
	cmp	r0, #35
	blo	.LBB45_23
.LBB45_24:                              @ %._crit_edge35
                                        @   in Loop: Header=BB45_16 Depth=2
	ldrd	r2, r3, [r10]
	mov	r7, #0
	orrs	r0, r2, r3
	beq	.LBB45_26
@ BB#25:                                @   in Loop: Header=BB45_16 Depth=2
	ldr	r0, [sp, #144]          @ 4-byte Reload
	mov	r5, #100
	ldrd	r0, r1, [r0]
	umull	r0, r7, r0, r5
	mla	r1, r1, r5, r7
	bl	__aeabi_uldivmod(PLT)
	mov	r7, r0
.LBB45_26:                              @   in Loop: Header=BB45_16 Depth=2
	ldr	r2, [sp, #100]          @ 4-byte Reload
	mov	r0, r4
	mov	r1, r6
	bl	halide_string_to_string(PLT)
	mov	r1, #1
	asr	r3, r7, #31
	str	r1, [sp]
	mov	r1, r6
	mov	r2, r7
	bl	halide_int64_to_string(PLT)
	ldr	r2, [sp, #96]           @ 4-byte Reload
	mov	r1, r6
	bl	halide_string_to_string(PLT)
	ldr	r4, [sp, #92]           @ 4-byte Reload
	mov	r9, r0
	sub	r0, r9, r8
	cmp	r0, #42
	bhi	.LBB45_28
.LBB45_27:                              @ %.lr.ph39
                                        @   Parent Loop BB45_4 Depth=1
                                        @     Parent Loop BB45_16 Depth=2
                                        @ =>    This Inner Loop Header: Depth=3
	mov	r0, r9
	mov	r1, r6
	mov	r2, r4
	bl	halide_string_to_string(PLT)
	mov	r9, r0
	sub	r0, r9, r8
	cmp	r0, #43
	blo	.LBB45_27
.LBB45_28:                              @ %._crit_edge40
                                        @   in Loop: Header=BB45_16 Depth=2
	ldr	r0, [sp, #124]          @ 4-byte Reload
	mov	r7, #58
	cmp	r0, #0
	beq	.LBB45_33
@ BB#29:                                @   in Loop: Header=BB45_16 Depth=2
	ldr	r2, [sp, #144]          @ 4-byte Reload
	add	r7, r2, #40
	ldm	r7, {r0, r1, r4, r7}
	bl	__aeabi_ul2d(PLT)
	mov	r10, r0
	mov	r5, r1
	mov	r0, r4
	mov	r1, r7
	bl	__aeabi_ul2d(PLT)
	vmov	d16, r0, r1
	mov	r0, r9
	vadd.f64	d16, d16, d9
	mov	r1, r6
	vmov	d17, r10, r5
	ldr	r2, [sp, #60]           @ 4-byte Reload
	vdiv.f64	d16, d17, d16
	vcvt.f32.f64	s20, d16
	bl	halide_string_to_string(PLT)
	vcvt.f64.f32	d0, s20
	mov	r1, r6
	mov	r2, #0
	mov	r9, #0
	bl	halide_double_to_string(PLT)
	cmp	r0, #0
	beq	.LBB45_31
@ BB#30:                                @   in Loop: Header=BB45_16 Depth=2
	sub	r9, r0, #3
	mov	r0, #0
	cmp	r9, r8
	movlo	r9, r8
	strb	r0, [r9]
.LBB45_31:                              @ %_ZN6Halide7Runtime8Internal12_GLOBAL__N_17PrinterILi2ELy1024EE5eraseEi.exit18.preheader
                                        @   in Loop: Header=BB45_16 Depth=2
	ldr	r4, [sp, #56]           @ 4-byte Reload
	sub	r0, r9, r8
	mov	r7, #73
	cmp	r0, #57
	bhi	.LBB45_33
.LBB45_32:                              @ %_ZN6Halide7Runtime8Internal12_GLOBAL__N_17PrinterILi2ELy1024EE5eraseEi.exit18
                                        @   Parent Loop BB45_4 Depth=1
                                        @     Parent Loop BB45_16 Depth=2
                                        @ =>    This Inner Loop Header: Depth=3
	mov	r0, r9
	mov	r1, r6
	mov	r2, r4
	bl	halide_string_to_string(PLT)
	mov	r9, r0
	sub	r0, r9, r8
	cmp	r0, #58
	blo	.LBB45_32
.LBB45_33:                              @ %.loopexit
                                        @   in Loop: Header=BB45_16 Depth=2
	ldr	r3, [sp, #144]          @ 4-byte Reload
	mov	r0, #0
	mov	r10, r3
	ldr	r2, [r10, #60]!
	cmp	r2, #0
	beq	.LBB45_35
@ BB#34:                                @   in Loop: Header=BB45_16 Depth=2
	ldrd	r0, r1, [r3, #24]
	mov	r4, r3
	asr	r3, r2, #31
	bl	__aeabi_uldivmod(PLT)
	mov	r3, r4
.LBB45_35:                              @   in Loop: Header=BB45_16 Depth=2
	mov	r4, r3
	ldr	r2, [r4, #16]!
	ldr	r1, [r4, #4]
	orrs	r1, r2, r1
	beq	.LBB45_41
@ BB#36:                                @   in Loop: Header=BB45_16 Depth=2
	ldr	r2, [sp, #80]           @ 4-byte Reload
	mov	r1, r6
	str	r0, [sp, #136]          @ 4-byte Spill
	mov	r0, r9
	bl	halide_string_to_string(PLT)
	ldrd	r2, r3, [r4]
	mov	r4, #1
	mov	r1, r6
	str	r4, [sp]
	bl	halide_uint64_to_string(PLT)
	sub	r1, r0, r8
	mov	r2, #0
	cmp	r1, r7
	mov	r5, #0
	movwhs	r2, #1
	cmp	r5, r1, asr #31
	movne	r2, r4
	ldr	r4, [sp, #76]           @ 4-byte Reload
	cmp	r2, #0
	bne	.LBB45_38
.LBB45_37:                              @ %.lr.ph49
                                        @   Parent Loop BB45_4 Depth=1
                                        @     Parent Loop BB45_16 Depth=2
                                        @ =>    This Inner Loop Header: Depth=3
	mov	r1, r6
	mov	r2, r4
	bl	halide_string_to_string(PLT)
	sub	r1, r0, r8
	mov	r2, #0
	cmp	r1, r7
	movwlo	r2, #1
	cmp	r5, r1, asr #31
	movne	r2, r5
	cmp	r2, #0
	bne	.LBB45_37
.LBB45_38:                              @ %._crit_edge50
                                        @   in Loop: Header=BB45_16 Depth=2
	ldr	r2, [sp, #72]           @ 4-byte Reload
	mov	r1, r6
	bl	halide_string_to_string(PLT)
	ldr	r2, [r10]
	mov	r9, #1
	mov	r1, r6
	str	r9, [sp]
	asr	r3, r2, #31
	bl	halide_int64_to_string(PLT)
	add	r4, r7, #15
	sub	r1, r0, r8
	cmp	r1, r4
	mov	r2, #0
	movwhs	r2, #1
	cmp	r5, r1, asr #31
	ldr	r7, [sp, #68]           @ 4-byte Reload
	movne	r2, r9
	cmp	r2, #0
	bne	.LBB45_40
.LBB45_39:                              @ %.lr.ph55
                                        @   Parent Loop BB45_4 Depth=1
                                        @     Parent Loop BB45_16 Depth=2
                                        @ =>    This Inner Loop Header: Depth=3
	mov	r1, r6
	mov	r2, r7
	bl	halide_string_to_string(PLT)
	sub	r1, r0, r8
	mov	r2, #0
	cmp	r1, r4
	movwlo	r2, #1
	cmp	r5, r1, asr #31
	movne	r2, r5
	cmp	r2, #0
	bne	.LBB45_39
.LBB45_40:                              @ %._crit_edge56
                                        @   in Loop: Header=BB45_16 Depth=2
	ldr	r2, [sp, #64]           @ 4-byte Reload
	mov	r1, r6
	bl	halide_string_to_string(PLT)
	ldr	r2, [sp, #136]          @ 4-byte Reload
	mov	r1, #1
	str	r1, [sp]
	mov	r1, r6
	asr	r3, r2, #31
	bl	halide_int64_to_string(PLT)
	ldr	r10, [sp, #132]         @ 4-byte Reload
	mov	r9, r0
	ldr	r7, [sp, #120]          @ 4-byte Reload
	ldr	r4, [sp, #140]          @ 4-byte Reload
	ldr	r3, [sp, #144]          @ 4-byte Reload
	b	.LBB45_42
.LBB45_41:                              @   in Loop: Header=BB45_16 Depth=2
	ldr	r10, [sp, #132]         @ 4-byte Reload
	ldr	r7, [sp, #120]          @ 4-byte Reload
	ldr	r4, [sp, #140]          @ 4-byte Reload
.LBB45_42:                              @   in Loop: Header=BB45_16 Depth=2
	ldr	r0, [r3, #32]!
	ldr	r1, [r3, #4]
	orrs	r0, r0, r1
	beq	.LBB45_44
@ BB#43:                                @   in Loop: Header=BB45_16 Depth=2
	ldr	r2, [sp, #84]           @ 4-byte Reload
	mov	r0, r9
	mov	r1, r6
	mov	r5, r3
	bl	halide_string_to_string(PLT)
	ldrd	r2, r3, [r5]
	mov	r1, #1
	str	r1, [sp]
	mov	r1, r6
	bl	halide_uint64_to_string(PLT)
	mov	r9, r0
.LBB45_44:                              @   in Loop: Header=BB45_16 Depth=2
	ldr	r2, [sp, #88]           @ 4-byte Reload
	mov	r0, r9
	mov	r1, r6
	bl	halide_string_to_string(PLT)
	ldr	r0, [sp, #128]          @ 4-byte Reload
	mov	r1, r8
	bl	halide_print(PLT)
	mov	r9, #0
.LBB45_45:                              @ %.thread19
                                        @   in Loop: Header=BB45_16 Depth=2
	ldr	r0, [r10, #60]
	add	r4, r4, #1
	cmp	r4, r0
	blt	.LBB45_16
.LBB45_46:                              @ %.loopexit23
                                        @   in Loop: Header=BB45_4 Depth=1
	ldr	r10, [r10, #56]
	cmp	r10, #0
	bne	.LBB45_4
.LBB45_47:                              @ %_ZN6Halide7Runtime8Internal12_GLOBAL__N_17PrinterILi2ELy1024EED2Ev.exit
	sub	sp, r11, #56
	vpop	{d8, d9, d10}
	add	sp, sp, #4
	pop	{r4, r5, r6, r7, r8, r9, r10, r11, pc}
	.align	2
@ BB#48:
.LCPI45_1:
	.long	.L.str.25.62-(.LPC45_6+8)
.LCPI45_2:
	.long	.L.str.8-(.LPC45_5+8)
.LCPI45_3:
	.long	.L.str.9-(.LPC45_4+8)
.LCPI45_4:
	.long	.L.str.10-(.LPC45_3+8)
.LCPI45_5:
	.long	.L.str.11-(.LPC45_2+8)
.LCPI45_6:
	.long	.L.str.12-(.LPC45_1+8)
.LCPI45_7:
	.long	.L.str.13-(.LPC45_0+8)
.LCPI45_9:
	.long	.L.str.14-(.LPC45_8+8)
.LCPI45_10:
	.long	.L.str.25.62-(.LPC45_7+8)
.LCPI45_11:
	.long	.L.str.15-(.LPC45_11+8)
.LCPI45_12:
	.long	.L.str.16-(.LPC45_10+8)
.LCPI45_13:
	.long	.L.str.17-(.LPC45_9+8)
.LCPI45_14:
	.long	.L.str.18-(.LPC45_13+8)
.LCPI45_15:
	.long	.L.str.19-(.LPC45_12+8)
.LCPI45_16:
	.long	.L.str.13.50-(.LPC45_14+8)
.LCPI45_17:
	.long	.L.str.21-(.LPC45_15+8)
.LCPI45_18:
	.long	.L.str.13.50-(.LPC45_16+8)
.LCPI45_19:
	.long	.L.str.15.52-(.LPC45_18+8)
.LCPI45_20:
	.long	.L.str.23-(.LPC45_17+8)
.LCPI45_21:
	.long	.L.str.13.50-(.LPC45_19+8)
.LCPI45_22:
	.long	.L.str.24-(.LPC45_20+8)
.LCPI45_23:
	.long	.L.str.13.50-(.LPC45_21+8)
.LCPI45_24:
	.long	.L.str.25-(.LPC45_22+8)
.LCPI45_25:
	.long	.L.str.13.50-(.LPC45_23+8)
.LCPI45_26:
	.long	.L.str.26-(.LPC45_24+8)
.LCPI45_27:
	.long	.L.str.13.50-(.LPC45_25+8)
.LCPI45_28:
	.long	.L.str.27-(.LPC45_26+8)
.LCPI45_29:
	.long	.L.str.28-(.LPC45_27+8)
.LCPI45_30:
	.long	.L.str.25.62-(.LPC45_28+8)
.Lfunc_end45:
	.size	halide_profiler_report_unlocked, .Lfunc_end45-halide_profiler_report_unlocked
	.cantunwind
	.fnend

	.section	.text._ZN6Halide7Runtime8Internal23find_or_create_pipelineEPKciPKy,"ax",%progbits
	.weak	_ZN6Halide7Runtime8Internal23find_or_create_pipelineEPKciPKy
	.align	2
	.type	_ZN6Halide7Runtime8Internal23find_or_create_pipelineEPKciPKy,%function
_ZN6Halide7Runtime8Internal23find_or_create_pipelineEPKciPKy: @ @_ZN6Halide7Runtime8Internal23find_or_create_pipelineEPKciPKy
	.fnstart
@ BB#0:
	.save	{r4, r5, r6, r7, r8, r9, r11, lr}
	push	{r4, r5, r6, r7, r8, r9, r11, lr}
	.setfp	r11, sp, #24
	add	r11, sp, #24
	mov	r5, r2
	mov	r9, r1
	mov	r4, r0
	bl	halide_profiler_get_state(PLT)
	mov	r8, r0
	ldr	r6, [r8, #80]
	b	.LBB46_2
.LBB46_1:                               @   in Loop: Header=BB46_2 Depth=1
	ldr	r6, [r6, #56]
.LBB46_2:                               @ =>This Inner Loop Header: Depth=1
	cmp	r6, #0
	beq	.LBB46_5
@ BB#3:                                 @ %.lr.ph8
                                        @   in Loop: Header=BB46_2 Depth=1
	ldr	r0, [r6, #48]
	cmp	r0, r4
	bne	.LBB46_1
@ BB#4:                                 @   in Loop: Header=BB46_2 Depth=1
	ldr	r0, [r6, #60]
	cmp	r0, r9
	bne	.LBB46_1
	b	.LBB46_12
.LBB46_5:                               @ %.critedge
	mov	r0, #80
	bl	malloc(PLT)
	mov	r7, r0
	mov	r6, #0
	cmp	r7, #0
	beq	.LBB46_12
@ BB#6:
	ldr	r0, [r8, #80]
	mov	r6, #0
	vmov.i32	q8, #0x0
	str	r0, [r7, #56]
	str	r4, [r7, #48]
	ldr	r0, [r8, #68]
	str	r0, [r7, #64]
	add	r0, r7, #32
	str	r9, [r7, #60]
	str	r6, [r7, #68]
	str	r6, [r7, #72]
	str	r6, [r7, #76]
	vst1.64	{d16, d17}, [r0]
	mov	r0, r7
	vst1.64	{d16, d17}, [r0]!
	vst1.64	{d16, d17}, [r0]
	lsl	r0, r9, #6
	bl	malloc(PLT)
	str	r0, [r7, #52]
	cmp	r0, #0
	beq	.LBB46_11
@ BB#7:                                 @ %.preheader
	cmp	r9, #1
	blt	.LBB46_10
@ BB#8:                                 @ %.lr.ph.preheader
	vmov.i32	q8, #0x0
	add	r0, r0, #60
	mov	r1, #0
	mov	r2, r9
.LBB46_9:                               @ %.lr.ph
                                        @ =>This Inner Loop Header: Depth=1
	str	r1, [r0, #-56]
	sub	r3, r0, #20
	str	r1, [r0, #-60]
	subs	r2, r2, #1
	ldr	r4, [r5], #8
	str	r4, [r0, #-4]
	str	r1, [r0]
	vst1.64	{d16, d17}, [r3]
	sub	r3, r0, #36
	vst1.64	{d16, d17}, [r3]
	sub	r3, r0, #52
	add	r0, r0, #64
	vst1.64	{d16, d17}, [r3]
	bne	.LBB46_9
.LBB46_10:                              @ %._crit_edge
	ldr	r0, [r8, #68]
	mov	r6, r7
	add	r0, r0, r9
	str	r0, [r8, #68]
	mov	r0, r6
	str	r7, [r8, #80]
	pop	{r4, r5, r6, r7, r8, r9, r11, pc}
.LBB46_11:
	mov	r0, r7
	bl	free(PLT)
.LBB46_12:                              @ %.loopexit
	mov	r0, r6
	pop	{r4, r5, r6, r7, r8, r9, r11, pc}
.Lfunc_end46:
	.size	_ZN6Halide7Runtime8Internal23find_or_create_pipelineEPKciPKy, .Lfunc_end46-_ZN6Halide7Runtime8Internal23find_or_create_pipelineEPKciPKy
	.cantunwind
	.fnend

	.section	.text._ZN6Halide7Runtime8Internal9bill_funcEP21halide_profiler_stateiyi,"ax",%progbits
	.weak	_ZN6Halide7Runtime8Internal9bill_funcEP21halide_profiler_stateiyi
	.align	2
	.type	_ZN6Halide7Runtime8Internal9bill_funcEP21halide_profiler_stateiyi,%function
_ZN6Halide7Runtime8Internal9bill_funcEP21halide_profiler_stateiyi: @ @_ZN6Halide7Runtime8Internal9bill_funcEP21halide_profiler_stateiyi
	.fnstart
@ BB#0:
	.save	{r4, r5, r6, r7, r11, lr}
	push	{r4, r5, r6, r7, r11, lr}
	ldr	r4, [r0, #80]
	cmp	r4, #0
	beq	.LBB47_5
@ BB#1:
	ldr	lr, [sp, #24]
	mov	r6, #0
	mov	r5, r4
.LBB47_2:                               @ %.lr.ph
                                        @ =>This Inner Loop Header: Depth=1
	mov	r12, r5
	ldr	r5, [r12, #64]
	cmp	r5, r1
	bgt	.LBB47_4
@ BB#3:                                 @   in Loop: Header=BB47_2 Depth=1
	ldr	r7, [r12, #60]
	add	r7, r7, r5
	cmp	r7, r1
	bgt	.LBB47_6
.LBB47_4:                               @   in Loop: Header=BB47_2 Depth=1
	ldr	r5, [r12, #56]
	mov	r6, r12
	cmp	r5, #0
	bne	.LBB47_2
.LBB47_5:                               @ %.loopexit
	pop	{r4, r5, r6, r7, r11, pc}
.LBB47_6:
	cmp	r6, #0
	vldr	s3, .LCPI47_0
	ldrne	r7, [r12, #56]
	vldr	s2, .LCPI47_1
	vmov	s0, lr
	strne	r7, [r6, #56]
	asr	r7, lr, #31
	strne	r4, [r12, #56]
	strne	r12, [r0, #80]
	ldr	r0, [r12, #52]
	vmov.32	d0[1], r7
	add	r0, r0, r1, lsl #6
	ldr	r1, [r0, -r5, lsl #6]!
	ldr	r7, [r0, #4]
	adds	r4, r1, r2
	adc	r5, r7, r3
	strd	r4, r5, [r0]
	add	r0, r0, #40
	vld1.64	{d16, d17}, [r0]
	vadd.i64	q8, q8, q0
	vst1.64	{d16, d17}, [r0]
	ldm	r12, {r0, r1}
	adds	r0, r0, r2
	str	r0, [r12]
	adc	r0, r1, r3
	str	r0, [r12, #4]
	ldr	r0, [r12, #72]
	add	r0, r0, #1
	str	r0, [r12, #72]
	add	r0, r12, #32
	vld1.64	{d16, d17}, [r0]
	vadd.i64	q8, q8, q0
	vst1.64	{d16, d17}, [r0]
	pop	{r4, r5, r6, r7, r11, pc}
	.align	2
@ BB#7:
.LCPI47_0:
	.long	0                       @ float 0
.LCPI47_1:
	.long	1                       @ float 1.40129846E-45
.Lfunc_end47:
	.size	_ZN6Halide7Runtime8Internal9bill_funcEP21halide_profiler_stateiyi, .Lfunc_end47-_ZN6Halide7Runtime8Internal9bill_funcEP21halide_profiler_stateiyi
	.cantunwind
	.fnend

	.section	.text._ZN6Halide7Runtime8Internal24sampling_profiler_threadEPv,"ax",%progbits
	.weak	_ZN6Halide7Runtime8Internal24sampling_profiler_threadEPv
	.align	2
	.type	_ZN6Halide7Runtime8Internal24sampling_profiler_threadEPv,%function
_ZN6Halide7Runtime8Internal24sampling_profiler_threadEPv: @ @_ZN6Halide7Runtime8Internal24sampling_profiler_threadEPv
	.fnstart
@ BB#0:
	.save	{r4, r5, r6, r7, r8, r9, r10, r11, lr}
	push	{r4, r5, r6, r7, r8, r9, r10, r11, lr}
	.setfp	r11, sp, #28
	add	r11, sp, #28
	.pad	#12
	sub	sp, sp, #12
	bl	halide_profiler_get_state(PLT)
	mov	r4, r0
	bl	halide_mutex_lock(PLT)
	ldr	r0, [r4, #72]
	cmn	r0, #2
	beq	.LBB48_11
@ BB#1:                                 @ %.lr.ph
	add	r8, sp, #8
	add	r9, sp, #4
.LBB48_2:                               @ =>This Loop Header: Depth=1
                                        @     Child Loop BB48_4 Depth 2
	mov	r0, #0
	bl	halide_current_time_ns(PLT)
	mov	r10, r0
	mov	r5, r1
	b	.LBB48_4
.LBB48_3:                               @ %.thread
                                        @   in Loop: Header=BB48_4 Depth=2
	mov	r0, r4
	ldr	r5, [r4, #64]
	bl	halide_mutex_unlock(PLT)
	mov	r0, #0
	mov	r1, r5
	bl	halide_sleep_ms(PLT)
	mov	r0, r4
	bl	halide_mutex_lock(PLT)
	mov	r10, r6
	mov	r5, r7
.LBB48_4:                               @   Parent Loop BB48_2 Depth=1
                                        @ =>  This Inner Loop Header: Depth=2
	ldr	r2, [r4, #84]
	cmp	r2, #0
	beq	.LBB48_6
@ BB#5:                                 @   in Loop: Header=BB48_4 Depth=2
	mov	r0, r8
	mov	r1, r9
	blx	r2
	b	.LBB48_7
.LBB48_6:                               @   in Loop: Header=BB48_4 Depth=2
	ldr	r0, [r4, #72]
	str	r0, [sp, #8]
	ldr	r0, [r4, #76]
	str	r0, [sp, #4]
.LBB48_7:                               @   in Loop: Header=BB48_4 Depth=2
	mov	r0, #0
	bl	halide_current_time_ns(PLT)
	mov	r7, r1
	ldr	r1, [sp, #8]
	mov	r6, r0
	cmn	r1, #2
	beq	.LBB48_10
@ BB#8:                                 @   in Loop: Header=BB48_4 Depth=2
	cmp	r1, #0
	blt	.LBB48_3
@ BB#9:                                 @   in Loop: Header=BB48_4 Depth=2
	ldr	r0, [sp, #4]
	subs	r2, r6, r10
	sbc	r3, r7, r5
	str	r0, [sp]
	mov	r0, r4
	bl	_ZN6Halide7Runtime8Internal9bill_funcEP21halide_profiler_stateiyi(PLT)
	b	.LBB48_3
.LBB48_10:                              @   in Loop: Header=BB48_2 Depth=1
	ldr	r0, [r4, #72]
	cmn	r0, #2
	bne	.LBB48_2
.LBB48_11:                              @ %._crit_edge
	mov	r0, #0
	strb	r0, [r4, #88]
	mov	r0, r4
	bl	halide_mutex_unlock(PLT)
	sub	sp, r11, #28
	pop	{r4, r5, r6, r7, r8, r9, r10, r11, pc}
.Lfunc_end48:
	.size	_ZN6Halide7Runtime8Internal24sampling_profiler_threadEPv, .Lfunc_end48-_ZN6Halide7Runtime8Internal24sampling_profiler_threadEPv
	.cantunwind
	.fnend

	.section	.text.halide_profiler_get_pipeline_state,"ax",%progbits
	.weak	halide_profiler_get_pipeline_state
	.align	2
	.type	halide_profiler_get_pipeline_state,%function
halide_profiler_get_pipeline_state:     @ @halide_profiler_get_pipeline_state
	.fnstart
@ BB#0:
	.save	{r4, r5, r6, r10, r11, lr}
	push	{r4, r5, r6, r10, r11, lr}
	.setfp	r11, sp, #16
	add	r11, sp, #16
	mov	r6, r0
	bl	halide_profiler_get_state(PLT)
	mov	r4, r0
	bl	halide_mutex_lock(PLT)
	ldr	r0, [r4, #80]
	mov	r5, #0
	b	.LBB49_2
.LBB49_1:                               @   in Loop: Header=BB49_2 Depth=1
	ldr	r0, [r0, #56]
.LBB49_2:                               @ =>This Inner Loop Header: Depth=1
	cmp	r0, #0
	beq	.LBB49_5
@ BB#3:                                 @ %.lr.ph
                                        @   in Loop: Header=BB49_2 Depth=1
	ldr	r1, [r0, #48]
	cmp	r1, r6
	bne	.LBB49_1
@ BB#4:
	mov	r5, r0
.LBB49_5:                               @ %._crit_edge
	mov	r0, r4
	bl	halide_mutex_unlock(PLT)
	mov	r0, r5
	pop	{r4, r5, r6, r10, r11, pc}
.Lfunc_end49:
	.size	halide_profiler_get_pipeline_state, .Lfunc_end49-halide_profiler_get_pipeline_state
	.cantunwind
	.fnend

	.section	.text.halide_profiler_pipeline_start,"ax",%progbits
	.weak	halide_profiler_pipeline_start
	.align	2
	.type	halide_profiler_pipeline_start,%function
halide_profiler_pipeline_start:         @ @halide_profiler_pipeline_start
	.fnstart
@ BB#0:
	.save	{r4, r5, r6, r7, r8, r10, r11, lr}
	push	{r4, r5, r6, r7, r8, r10, r11, lr}
	.setfp	r11, sp, #24
	add	r11, sp, #24
	mov	r6, r3
	mov	r7, r2
	mov	r5, r1
	mov	r8, r0
	bl	halide_profiler_get_state(PLT)
	mov	r4, r0
	bl	halide_mutex_lock(PLT)
	ldrb	r0, [r4, #88]
	cmp	r0, #0
	bne	.LBB50_2
@ BB#1:
	mov	r0, r8
	bl	halide_start_clock(PLT)
	ldr	r0, .LCPI50_0
	mov	r1, #0
.LPC50_0:
	ldr	r0, [pc, r0]
	bl	halide_spawn_thread(PLT)
	mov	r0, #1
	strb	r0, [r4, #88]
.LBB50_2:
	mov	r0, r5
	mov	r1, r7
	mov	r2, r6
	bl	_ZN6Halide7Runtime8Internal23find_or_create_pipelineEPKciPKy(PLT)
	cmp	r0, #0
	beq	.LBB50_4
@ BB#3:
	ldr	r1, [r0, #68]
	add	r1, r1, #1
	str	r1, [r0, #68]
	ldr	r5, [r0, #64]
	b	.LBB50_5
.LBB50_4:
	mov	r0, r8
	bl	halide_error_out_of_memory(PLT)
	mov	r5, r0
.LBB50_5:
	mov	r0, r4
	bl	halide_mutex_unlock(PLT)
	mov	r0, r5
	pop	{r4, r5, r6, r7, r8, r10, r11, pc}
	.align	2
@ BB#6:
.LCPI50_0:
.Ltmp49:
	.long	_ZN6Halide7Runtime8Internal24sampling_profiler_threadEPv(GOT_PREL)-((.LPC50_0+8)-.Ltmp49)
.Lfunc_end50:
	.size	halide_profiler_pipeline_start, .Lfunc_end50-halide_profiler_pipeline_start
	.cantunwind
	.fnend

	.section	.text.halide_profiler_stack_peak_update,"ax",%progbits
	.weak	halide_profiler_stack_peak_update
	.align	2
	.type	halide_profiler_stack_peak_update,%function
halide_profiler_stack_peak_update:      @ @halide_profiler_stack_peak_update
	.fnstart
@ BB#0:
	.save	{r4, r5, r6, r7, r8, r9, r10, r11, lr}
	push	{r4, r5, r6, r7, r8, r9, r10, r11, lr}
	.setfp	r11, sp, #28
	add	r11, sp, #28
	.pad	#12
	sub	sp, sp, #12
	mov	r10, r1
	cmp	r10, #0
	bne	.LBB51_2
@ BB#1:
	ldr	r1, .LCPI51_0
	mov	r4, r2
.LPC51_0:
	add	r1, pc, r1
	bl	halide_print(PLT)
	bl	abort(PLT)
	mov	r2, r4
.LBB51_2:                               @ %.preheader
	ldr	r1, [r10, #60]
	cmp	r1, #1
	blt	.LBB51_14
@ BB#3:                                 @ %.lr.ph
	mov	r12, #0
.LBB51_4:                               @ =>This Loop Header: Depth=1
                                        @     Child Loop BB51_6 Depth 2
                                        @       Child Loop BB51_8 Depth 3
	mov	r3, r2
	ldr	r4, [r3, r12, lsl #3]!
	ldr	r5, [r3, #4]
	strd	r4, r5, [sp]            @ 8-byte Spill
	orrs	r3, r4, r5
	beq	.LBB51_13
@ BB#5:                                 @   in Loop: Header=BB51_4 Depth=1
	ldr	r1, [r10, #52]
	add	r4, r1, r12, lsl #6
	ldr	lr, [r4, #32]!
	ldr	r6, [r4, #4]
.LBB51_6:                               @   Parent Loop BB51_4 Depth=1
                                        @ =>  This Loop Header: Depth=2
                                        @       Child Loop BB51_8 Depth 3
	ldrd	r0, r1, [sp]            @ 8-byte Reload
	mov	r7, #0
	mov	r3, #0
	cmp	lr, r0
	movwhs	r7, #1
	cmp	r6, r1
	movwhs	r3, #1
	strd	r0, r1, [sp]            @ 8-byte Spill
	moveq	r3, r7
	cmp	r3, #0
	bne	.LBB51_12
@ BB#7:                                 @   in Loop: Header=BB51_6 Depth=2
	dmb	ish
.LBB51_8:                               @ %cmpxchg.start
                                        @   Parent Loop BB51_4 Depth=1
                                        @     Parent Loop BB51_6 Depth=2
                                        @ =>    This Inner Loop Header: Depth=3
	ldrexd	r8, r9, [r4]
	eor	r7, r8, lr
	eor	r5, r9, r6
	orrs	r7, r7, r5
	bne	.LBB51_10
@ BB#9:                                 @ %cmpxchg.trystore
                                        @   in Loop: Header=BB51_8 Depth=3
	ldrd	r0, r1, [sp]            @ 8-byte Reload
	strexd	r5, r0, r1, [r4]
	cmp	r5, #0
	bne	.LBB51_8
	b	.LBB51_11
.LBB51_10:                              @ %cmpxchg.nostore
                                        @   in Loop: Header=BB51_6 Depth=2
	clrex
.LBB51_11:                              @ %cmpxchg.end
                                        @   in Loop: Header=BB51_6 Depth=2
	mov	lr, r8
	mov	r6, r9
	dmb	ish
	cmp	r7, #0
	bne	.LBB51_6
.LBB51_12:                              @ %_ZN12_GLOBAL__N_125sync_compare_max_and_swapIyEEvPT_S1_.exit.loopexit
                                        @   in Loop: Header=BB51_4 Depth=1
	ldr	r1, [r10, #60]
.LBB51_13:                              @ %_ZN12_GLOBAL__N_125sync_compare_max_and_swapIyEEvPT_S1_.exit
                                        @   in Loop: Header=BB51_4 Depth=1
	add	r12, r12, #1
	cmp	r12, r1
	blt	.LBB51_4
.LBB51_14:                              @ %._crit_edge
	sub	sp, r11, #28
	pop	{r4, r5, r6, r7, r8, r9, r10, r11, pc}
	.align	2
@ BB#15:
.LCPI51_0:
	.long	.L.str.29-(.LPC51_0+8)
.Lfunc_end51:
	.size	halide_profiler_stack_peak_update, .Lfunc_end51-halide_profiler_stack_peak_update
	.cantunwind
	.fnend

	.section	.text.halide_profiler_memory_allocate,"ax",%progbits
	.weak	halide_profiler_memory_allocate
	.align	2
	.type	halide_profiler_memory_allocate,%function
halide_profiler_memory_allocate:        @ @halide_profiler_memory_allocate
	.fnstart
@ BB#0:
	.save	{r4, r5, r6, r7, r8, r9, r10, r11, lr}
	push	{r4, r5, r6, r7, r8, r9, r10, r11, lr}
	.setfp	r11, sp, #28
	add	r11, sp, #28
	.pad	#4
	sub	sp, sp, #4
	ldr	r7, [r11, #12]
	mov	r4, r2
	ldr	r8, [r11, #8]
	mov	r6, r0
	mov	r10, r1
	orrs	r0, r8, r7
	beq	.LBB52_33
@ BB#1:
	cmp	r10, #0
	bne	.LBB52_3
@ BB#2:
	ldr	r0, .LCPI52_0
.LPC52_0:
	add	r1, pc, r0
	mov	r0, r6
	bl	halide_print(PLT)
	bl	abort(PLT)
.LBB52_3:
	cmp	r4, #0
	bge	.LBB52_5
@ BB#4:
	ldr	r0, .LCPI52_1
.LPC52_1:
	add	r1, pc, r0
	mov	r0, r6
	bl	halide_print(PLT)
	bl	abort(PLT)
.LBB52_5:
	ldr	r0, [r10, #60]
	cmp	r0, r4
	bgt	.LBB52_7
@ BB#6:
	ldr	r0, .LCPI52_2
.LPC52_2:
	add	r1, pc, r0
	mov	r0, r6
	bl	halide_print(PLT)
	bl	abort(PLT)
.LBB52_7:
	ldr	lr, [r10, #52]
	mov	r0, r4
	add	r1, r10, #76
	dmb	ish
.LBB52_8:                               @ %atomicrmw.start
                                        @ =>This Inner Loop Header: Depth=1
	ldrex	r2, [r1]
	add	r2, r2, #1
	strex	r3, r2, [r1]
	cmp	r3, #0
	bne	.LBB52_8
@ BB#9:                                 @ %atomicrmw.end
	dmb	ish
	add	r1, r10, #24
.LBB52_10:                              @ %atomicrmw.start2
                                        @ =>This Inner Loop Header: Depth=1
	ldrexd	r2, r3, [r1]
	adds	r4, r2, r8
	adc	r5, r3, r7
	strexd	r2, r4, r5, [r1]
	cmp	r2, #0
	bne	.LBB52_10
@ BB#11:                                @ %atomicrmw.end1
	dmb	ish
	add	r1, r10, #8
.LBB52_12:                              @ %atomicrmw.start8
                                        @ =>This Inner Loop Header: Depth=1
	ldrexd	r4, r5, [r1]
	adds	r2, r4, r8
	adc	r3, r5, r7
	strexd	r6, r2, r3, [r1]
	cmp	r6, #0
	bne	.LBB52_12
@ BB#13:                                @ %atomicrmw.end7
	dmb	ish
	adds	r2, r4, r8
	ldr	r1, [r10, #16]!
	mov	r12, r8
	adc	r3, r5, r7
	ldr	r6, [r10, #4]
.LBB52_14:                              @ =>This Loop Header: Depth=1
                                        @     Child Loop BB52_16 Depth 2
	cmp	r1, r2
	mov	r5, #0
	movwhs	r5, #1
	cmp	r6, r3
	mov	r4, #0
	movwhs	r4, #1
	moveq	r4, r5
	cmp	r4, #0
	bne	.LBB52_20
@ BB#15:                                @   in Loop: Header=BB52_14 Depth=1
	dmb	ish
.LBB52_16:                              @ %cmpxchg.start
                                        @   Parent Loop BB52_14 Depth=1
                                        @ =>  This Inner Loop Header: Depth=2
	ldrexd	r8, r9, [r10]
	eor	r5, r8, r1
	eor	r4, r9, r6
	orrs	r5, r5, r4
	bne	.LBB52_18
@ BB#17:                                @ %cmpxchg.trystore
                                        @   in Loop: Header=BB52_16 Depth=2
	strexd	r4, r2, r3, [r10]
	cmp	r4, #0
	bne	.LBB52_16
	b	.LBB52_19
.LBB52_18:                              @ %cmpxchg.nostore
                                        @   in Loop: Header=BB52_14 Depth=1
	clrex
.LBB52_19:                              @ %cmpxchg.end
                                        @   in Loop: Header=BB52_14 Depth=1
	mov	r1, r8
	mov	r6, r9
	dmb	ish
	cmp	r5, #0
	bne	.LBB52_14
.LBB52_20:                              @ %_ZN12_GLOBAL__N_125sync_compare_max_and_swapIyEEvPT_S1_.exit
	add	r0, lr, r0, lsl #6
	dmb	ish
	add	r1, r0, #60
.LBB52_21:                              @ %atomicrmw.start28
                                        @ =>This Inner Loop Header: Depth=1
	ldrex	r2, [r1]
	add	r2, r2, #1
	strex	r3, r2, [r1]
	cmp	r3, #0
	bne	.LBB52_21
@ BB#22:                                @ %atomicrmw.end27
	add	r1, r0, #24
	dmb	ish
.LBB52_23:                              @ %atomicrmw.start32
                                        @ =>This Inner Loop Header: Depth=1
	ldrexd	r2, r3, [r1]
	adds	r4, r2, r12
	adc	r5, r3, r7
	strexd	r2, r4, r5, [r1]
	cmp	r2, #0
	bne	.LBB52_23
@ BB#24:                                @ %atomicrmw.end31
	add	r1, r0, #8
	dmb	ish
.LBB52_25:                              @ %atomicrmw.start44
                                        @ =>This Inner Loop Header: Depth=1
	ldrexd	r4, r5, [r1]
	adds	r2, r4, r12
	adc	r3, r5, r7
	strexd	r6, r2, r3, [r1]
	cmp	r6, #0
	bne	.LBB52_25
@ BB#26:                                @ %atomicrmw.end43
	dmb	ish
	adds	r8, r4, r12
	ldr	r1, [r0, #16]!
	adc	r9, r5, r7
	ldr	r6, [r0, #4]
.LBB52_27:                              @ =>This Loop Header: Depth=1
                                        @     Child Loop BB52_29 Depth 2
	cmp	r1, r8
	mov	r7, #0
	movwhs	r7, #1
	cmp	r6, r9
	mov	r5, #0
	movwhs	r5, #1
	moveq	r5, r7
	cmp	r5, #0
	bne	.LBB52_33
@ BB#28:                                @   in Loop: Header=BB52_27 Depth=1
	dmb	ish
.LBB52_29:                              @ %cmpxchg.start60
                                        @   Parent Loop BB52_27 Depth=1
                                        @ =>  This Inner Loop Header: Depth=2
	ldrexd	r4, r5, [r0]
	eor	r7, r4, r1
	eor	r2, r5, r6
	orrs	r7, r7, r2
	bne	.LBB52_31
@ BB#30:                                @ %cmpxchg.trystore59
                                        @   in Loop: Header=BB52_29 Depth=2
	strexd	r2, r8, r9, [r0]
	cmp	r2, #0
	bne	.LBB52_29
	b	.LBB52_32
.LBB52_31:                              @ %cmpxchg.nostore57
                                        @   in Loop: Header=BB52_27 Depth=1
	clrex
.LBB52_32:                              @ %cmpxchg.end55
                                        @   in Loop: Header=BB52_27 Depth=1
	mov	r1, r4
	mov	r6, r5
	dmb	ish
	cmp	r7, #0
	bne	.LBB52_27
.LBB52_33:                              @ %_ZN12_GLOBAL__N_125sync_compare_max_and_swapIyEEvPT_S1_.exit3
	sub	sp, r11, #28
	pop	{r4, r5, r6, r7, r8, r9, r10, r11, pc}
	.align	2
@ BB#34:
.LCPI52_0:
	.long	.L.str.1.30-(.LPC52_0+8)
.LCPI52_1:
	.long	.L.str.2.31-(.LPC52_1+8)
.LCPI52_2:
	.long	.L.str.3-(.LPC52_2+8)
.Lfunc_end52:
	.size	halide_profiler_memory_allocate, .Lfunc_end52-halide_profiler_memory_allocate
	.cantunwind
	.fnend

	.section	.text.halide_profiler_memory_free,"ax",%progbits
	.weak	halide_profiler_memory_free
	.align	2
	.type	halide_profiler_memory_free,%function
halide_profiler_memory_free:            @ @halide_profiler_memory_free
	.fnstart
@ BB#0:
	.save	{r4, r5, r6, r7, r8, r9, r11, lr}
	push	{r4, r5, r6, r7, r8, r9, r11, lr}
	.setfp	r11, sp, #24
	add	r11, sp, #24
	ldr	r7, [r11, #12]
	mov	r9, r2
	ldr	r6, [r11, #8]
	mov	r8, r0
	mov	r5, r1
	orrs	r0, r6, r7
	beq	.LBB53_12
@ BB#1:
	cmp	r5, #0
	bne	.LBB53_3
@ BB#2:
	ldr	r0, .LCPI53_0
.LPC53_0:
	add	r1, pc, r0
	mov	r0, r8
	bl	halide_print(PLT)
	bl	abort(PLT)
.LBB53_3:
	cmp	r9, #0
	bge	.LBB53_5
@ BB#4:
	ldr	r0, .LCPI53_1
.LPC53_1:
	add	r1, pc, r0
	mov	r0, r8
	bl	halide_print(PLT)
	bl	abort(PLT)
.LBB53_5:
	ldr	r0, [r5, #60]
	cmp	r0, r9
	bgt	.LBB53_7
@ BB#6:
	ldr	r0, .LCPI53_2
.LPC53_2:
	add	r1, pc, r0
	mov	r0, r8
	bl	halide_print(PLT)
	bl	abort(PLT)
.LBB53_7:
	ldr	r0, [r5, #52]
	add	r1, r5, #8
	dmb	ish
.LBB53_8:                               @ %atomicrmw.start
                                        @ =>This Inner Loop Header: Depth=1
	ldrexd	r2, r3, [r1]
	subs	r4, r2, r6
	sbc	r5, r3, r7
	strexd	r2, r4, r5, [r1]
	cmp	r2, #0
	bne	.LBB53_8
@ BB#9:                                 @ %atomicrmw.end
	add	r0, r0, r9, lsl #6
	dmb	ish
	add	r0, r0, #8
.LBB53_10:                              @ %atomicrmw.start4
                                        @ =>This Inner Loop Header: Depth=1
	ldrexd	r2, r3, [r0]
	subs	r4, r2, r6
	sbc	r5, r3, r7
	strexd	r1, r4, r5, [r0]
	cmp	r1, #0
	bne	.LBB53_10
@ BB#11:                                @ %atomicrmw.end3
	dmb	ish
.LBB53_12:
	pop	{r4, r5, r6, r7, r8, r9, r11, pc}
	.align	2
@ BB#13:
.LCPI53_0:
	.long	.L.str.4-(.LPC53_0+8)
.LCPI53_1:
	.long	.L.str.5.32-(.LPC53_1+8)
.LCPI53_2:
	.long	.L.str.6.33-(.LPC53_2+8)
.Lfunc_end53:
	.size	halide_profiler_memory_free, .Lfunc_end53-halide_profiler_memory_free
	.cantunwind
	.fnend

	.section	.text.halide_profiler_report,"ax",%progbits
	.weak	halide_profiler_report
	.align	2
	.type	halide_profiler_report,%function
halide_profiler_report:                 @ @halide_profiler_report
	.fnstart
@ BB#0:
	.save	{r4, r5, r11, lr}
	push	{r4, r5, r11, lr}
	.setfp	r11, sp, #8
	add	r11, sp, #8
	mov	r4, r0
	bl	halide_profiler_get_state(PLT)
	mov	r5, r0
	bl	halide_mutex_lock(PLT)
	mov	r0, r4
	mov	r1, r5
	bl	halide_profiler_report_unlocked(PLT)
	mov	r0, r5
	pop	{r4, r5, r11, lr}
	b	halide_mutex_unlock(PLT)
.Lfunc_end54:
	.size	halide_profiler_report, .Lfunc_end54-halide_profiler_report
	.cantunwind
	.fnend

	.section	.text.halide_profiler_reset,"ax",%progbits
	.weak	halide_profiler_reset
	.align	2
	.type	halide_profiler_reset,%function
halide_profiler_reset:                  @ @halide_profiler_reset
	.fnstart
@ BB#0:
	.save	{r4, r5, r11, lr}
	push	{r4, r5, r11, lr}
	.setfp	r11, sp, #8
	add	r11, sp, #8
	bl	halide_profiler_get_state(PLT)
	mov	r4, r0
	bl	halide_mutex_lock(PLT)
	b	.LBB55_2
.LBB55_1:                               @ %.lr.ph
                                        @   in Loop: Header=BB55_2 Depth=1
	ldr	r0, [r5, #56]
	str	r0, [r4, #80]
	ldr	r0, [r5, #52]
	bl	free(PLT)
	mov	r0, r5
	bl	free(PLT)
.LBB55_2:                               @ %.lr.ph
                                        @ =>This Inner Loop Header: Depth=1
	ldr	r5, [r4, #80]
	cmp	r5, #0
	bne	.LBB55_1
@ BB#3:                                 @ %._crit_edge
	mov	r0, #0
	str	r0, [r4, #68]
	mov	r0, r4
	pop	{r4, r5, r11, lr}
	b	halide_mutex_unlock(PLT)
.Lfunc_end55:
	.size	halide_profiler_reset, .Lfunc_end55-halide_profiler_reset
	.cantunwind
	.fnend

	.section	.text.halide_profiler_pipeline_end,"ax",%progbits
	.weak	halide_profiler_pipeline_end
	.align	2
	.type	halide_profiler_pipeline_end,%function
halide_profiler_pipeline_end:           @ @halide_profiler_pipeline_end
	.fnstart
@ BB#0:
	mvn	r0, #0
	str	r0, [r1, #72]
	bx	lr
.Lfunc_end56:
	.size	halide_profiler_pipeline_end, .Lfunc_end56-halide_profiler_pipeline_end
	.cantunwind
	.fnend

	.section	.text.halide_set_gpu_device,"ax",%progbits
	.weak	halide_set_gpu_device
	.align	2
	.type	halide_set_gpu_device,%function
halide_set_gpu_device:                  @ @halide_set_gpu_device
	.fnstart
@ BB#0:
	ldr	r1, .LCPI57_0
	ldr	r2, .LCPI57_1
.LPC57_1:
	ldr	r1, [pc, r1]
.LPC57_0:
	ldr	r2, [pc, r2]
	str	r0, [r1]
	mov	r0, #1
	strb	r0, [r2]
	bx	lr
	.align	2
@ BB#1:
.LCPI57_0:
.Ltmp50:
	.long	_ZN6Halide7Runtime8Internal17halide_gpu_deviceE(GOT_PREL)-((.LPC57_1+8)-.Ltmp50)
.LCPI57_1:
.Ltmp51:
	.long	_ZN6Halide7Runtime8Internal29halide_gpu_device_initializedE(GOT_PREL)-((.LPC57_0+8)-.Ltmp51)
.Lfunc_end57:
	.size	halide_set_gpu_device, .Lfunc_end57-halide_set_gpu_device
	.cantunwind
	.fnend

	.section	.text.halide_get_gpu_device,"ax",%progbits
	.weak	halide_get_gpu_device
	.align	2
	.type	halide_get_gpu_device,%function
halide_get_gpu_device:                  @ @halide_get_gpu_device
	.fnstart
@ BB#0:
	ldr	r0, .LCPI58_0
	mov	r1, #1
.LPC58_0:
	ldr	r0, [pc, r0]
.LBB58_1:                               @ %._crit_edge.i
                                        @ =>This Loop Header: Depth=1
                                        @     Child Loop BB58_2 Depth 2
	dmb	ish
.LBB58_2:                               @ %atomicrmw.start
                                        @   Parent Loop BB58_1 Depth=1
                                        @ =>  This Inner Loop Header: Depth=2
	ldrex	r2, [r0]
	strex	r3, r1, [r0]
	cmp	r3, #0
	bne	.LBB58_2
@ BB#3:                                 @ %atomicrmw.end
                                        @   in Loop: Header=BB58_1 Depth=1
	dmb	ish
	cmp	r2, #0
	bne	.LBB58_1
@ BB#4:                                 @ %_ZN6Halide7Runtime8Internal14ScopedSpinLockC2EPVi.exit
	ldr	r0, .LCPI58_1
.LPC58_1:
	ldr	r0, [pc, r0]
	ldrb	r0, [r0]
	cmp	r0, #0
	beq	.LBB58_6
@ BB#5:                                 @ %_ZN6Halide7Runtime8Internal14ScopedSpinLockC2EPVi.exit._crit_edge
	ldr	r0, .LCPI58_2
.LPC58_2:
	ldr	r0, [pc, r0]
	ldr	r0, [r0]
	b	.LBB58_9
.LBB58_6:
	.save	{r11, lr}
	push	{r11, lr}
	.setfp	r11, sp
	mov	r11, sp
	ldr	r0, .LCPI58_3
.LPC58_3:
	add	r0, pc, r0
	bl	getenv(PLT)
	mov	r1, r0
	mvn	r0, #0
	cmp	r1, #0
	beq	.LBB58_8
@ BB#7:
	mov	r0, r1
	bl	atoi(PLT)
.LBB58_8:
	ldr	r1, .LCPI58_4
	ldr	r2, .LCPI58_5
.LPC58_5:
	ldr	r1, [pc, r1]
.LPC58_4:
	ldr	r2, [pc, r2]
	str	r0, [r1]
	mov	r1, #1
	strb	r1, [r2]
	pop	{r11, lr}
.LBB58_9:
	ldr	r1, .LCPI58_6
	mov	r2, #0
	dmb	ish
.LPC58_6:
	ldr	r1, [pc, r1]
	str	r2, [r1]
	bx	lr
	.align	2
@ BB#10:
.LCPI58_0:
.Ltmp52:
	.long	_ZN6Halide7Runtime8Internal22halide_gpu_device_lockE(GOT_PREL)-((.LPC58_0+8)-.Ltmp52)
.LCPI58_1:
.Ltmp53:
	.long	_ZN6Halide7Runtime8Internal29halide_gpu_device_initializedE(GOT_PREL)-((.LPC58_1+8)-.Ltmp53)
.LCPI58_2:
.Ltmp54:
	.long	_ZN6Halide7Runtime8Internal17halide_gpu_deviceE(GOT_PREL)-((.LPC58_2+8)-.Ltmp54)
.LCPI58_3:
	.long	.L.str.34-(.LPC58_3+8)
.LCPI58_4:
.Ltmp55:
	.long	_ZN6Halide7Runtime8Internal17halide_gpu_deviceE(GOT_PREL)-((.LPC58_5+8)-.Ltmp55)
.LCPI58_5:
.Ltmp56:
	.long	_ZN6Halide7Runtime8Internal29halide_gpu_device_initializedE(GOT_PREL)-((.LPC58_4+8)-.Ltmp56)
.LCPI58_6:
.Ltmp57:
	.long	_ZN6Halide7Runtime8Internal22halide_gpu_device_lockE(GOT_PREL)-((.LPC58_6+8)-.Ltmp57)
.Lfunc_end58:
	.size	halide_get_gpu_device, .Lfunc_end58-halide_get_gpu_device
	.cantunwind
	.fnend

	.section	.text._ZN6Halide7Runtime8Internal13default_traceEPvPK18halide_trace_event,"ax",%progbits
	.weak	_ZN6Halide7Runtime8Internal13default_traceEPvPK18halide_trace_event
	.align	2
	.type	_ZN6Halide7Runtime8Internal13default_traceEPvPK18halide_trace_event,%function
_ZN6Halide7Runtime8Internal13default_traceEPvPK18halide_trace_event: @ @_ZN6Halide7Runtime8Internal13default_traceEPvPK18halide_trace_event
	.fnstart
@ BB#0:
	.save	{r4, r5, r6, r7, r8, r9, r10, r11, lr}
	push	{r4, r5, r6, r7, r8, r9, r10, r11, lr}
	.setfp	r11, sp, #28
	add	r11, sp, #28
	.pad	#44
	sub	sp, sp, #44
	.pad	#4096
	sub	sp, sp, #4096
	mov	r5, r0
	ldr	r0, .LCPI59_0
	mov	r6, r1
	dmb	ish
.LPC59_0:
	add	r0, pc, r0
.LBB59_1:                               @ %atomicrmw.start
                                        @ =>This Inner Loop Header: Depth=1
	ldrex	r4, [r0]
	add	r1, r4, #1
	strex	r2, r1, [r0]
	cmp	r2, #0
	bne	.LBB59_1
@ BB#2:                                 @ %atomicrmw.end
	mov	r0, r5
	dmb	ish
	bl	halide_get_trace_file(PLT)
	cmp	r0, #1
	blt	.LBB59_11
@ BB#3:
	str	r0, [sp, #36]           @ 4-byte Spill
	mov	r2, #1
	ldrb	r0, [r6, #13]
	ldrh	r8, [r6, #14]
	ldr	r1, [r6, #24]
	str	r5, [sp, #32]           @ 4-byte Spill
.LBB59_4:                               @ =>This Inner Loop Header: Depth=1
	mov	r5, r2
	lsl	r3, r5, #3
	lsl	r2, r5, #1
	cmp	r3, r0
	blt	.LBB59_4
@ BB#5:
	mvn	r7, #0
	cmp	r8, #256
	movhs	r8, r7
	cmp	r1, #256
	uxtb	r2, r8
	movlt	r7, r1
	uxtb	r10, r7
	mul	r9, r5, r2
	str	r2, [sp, #20]           @ 4-byte Spill
	add	r1, r9, #48
	str	r1, [sp, #16]           @ 4-byte Spill
	add	r1, r1, r10, lsl #2
	str	r1, [sp, #28]           @ 4-byte Spill
	cmp	r1, #4096
	bls	.LBB59_7
@ BB#6:
	ldr	r0, .LCPI59_21
.LPC59_21:
	add	r1, pc, r0
	ldr	r0, [sp, #32]           @ 4-byte Reload
	bl	halide_print(PLT)
	bl	abort(PLT)
	ldrb	r0, [r6, #13]
.LBB59_7:
	str	r4, [sp, #40]
	ldr	r1, [r6, #8]
	str	r10, [sp, #12]          @ 4-byte Spill
	lsl	r10, r10, #2
	str	r1, [sp, #44]
	ldr	r1, [r6, #4]
	strb	r1, [sp, #48]
	ldrb	r1, [r6, #12]
	strb	r1, [sp, #49]
	mov	r1, #0
	strb	r0, [sp, #50]
	strb	r8, [sp, #51]
	ldr	r0, [r6, #16]
	strb	r0, [sp, #52]
	add	r0, sp, #40
	add	r0, r0, #14
	strb	r7, [sp, #53]
	ldr	r2, [r6]
.LBB59_8:                               @ =>This Inner Loop Header: Depth=1
	ldrb	r3, [r2, r1]
	cmp	r3, #0
	strb	r3, [r0, r1]
	beq	.LBB59_26
@ BB#9:                                 @   in Loop: Header=BB59_8 Depth=1
	add	r3, r1, #15
	add	r1, r1, #1
	cmp	r3, #47
	blo	.LBB59_8
@ BB#10:                                @ %.preheader13
	mov	r8, #47
	str	r7, [sp, #24]           @ 4-byte Spill
	cmp	r3, #48
	blo	.LBB59_27
	b	.LBB59_33
.LBB59_11:
	mov	r0, r5
	mov	r1, #1024
	str	r5, [sp, #32]           @ 4-byte Spill
	bl	halide_malloc(PLT)
	mov	r9, r0
	mov	r7, #0
	cmp	r9, #0
	mov	r1, #8
	movne	r0, #0
	movne	r7, r9
	strbne	r0, [r7, #1023]!
	ldrb	r0, [r6, #13]
.LBB59_12:                              @ =>This Inner Loop Header: Depth=1
	mov	r8, r1
	lsl	r1, r8, #1
	cmp	r8, r0
	blt	.LBB59_12
@ BB#13:
	cmp	r8, #65
	blt	.LBB59_15
@ BB#14:
	ldr	r0, .LCPI59_1
.LPC59_1:
	add	r1, pc, r0
	ldr	r0, [sp, #32]           @ 4-byte Reload
	bl	halide_print(PLT)
	bl	abort(PLT)
.LBB59_15:
	ldr	r0, .LCPI59_2
	mov	r1, r7
	ldr	r10, [r6, #4]
.LPC59_5:
	add	r0, pc, r0
	ldr	r2, [r0, r10, lsl #2]
	mov	r0, r9
	bl	halide_string_to_string(PLT)
	ldr	r1, .LCPI59_3
.LPC59_4:
	add	r2, pc, r1
	mov	r1, r7
	bl	halide_string_to_string(PLT)
	ldr	r2, [r6]
	mov	r1, r7
	bl	halide_string_to_string(PLT)
	ldr	r1, .LCPI59_4
.LPC59_3:
	add	r2, pc, r1
	mov	r1, r7
	bl	halide_string_to_string(PLT)
	ldr	r2, [r6, #16]
	mov	r1, #1
	str	r1, [sp]
	mov	r1, r7
	asr	r3, r2, #31
	bl	halide_int64_to_string(PLT)
	ldr	r1, .LCPI59_5
.LPC59_2:
	add	r2, pc, r1
	mov	r1, r7
	bl	halide_string_to_string(PLT)
	mov	r5, r0
	ldrh	r0, [r6, #14]
	cmp	r0, #2
	blo	.LBB59_17
@ BB#16:
	ldr	r0, .LCPI59_6
	mov	r1, r7
.LPC59_6:
	add	r2, pc, r0
	mov	r0, r5
	bl	halide_string_to_string(PLT)
	mov	r5, r0
.LBB59_17:                              @ %.preheader15
	ldr	r0, [r6, #24]
	cmp	r0, #1
	blt	.LBB59_57
@ BB#18:                                @ %.lr.ph30
	ldr	r0, .LCPI59_8
	str	r10, [sp, #28]          @ 4-byte Spill
	mov	r10, r7
.LPC59_8:
	add	r0, pc, r0
	str	r9, [sp, #20]           @ 4-byte Spill
	str	r0, [sp, #36]           @ 4-byte Spill
	mov	r7, #0
	ldr	r0, .LCPI59_7
.LPC59_7:
	add	r9, pc, r0
.LBB59_19:                              @ =>This Inner Loop Header: Depth=1
	cmp	r7, #1
	blt	.LBB59_25
@ BB#20:                                @   in Loop: Header=BB59_19 Depth=1
	ldrh	r1, [r6, #14]
	cmp	r1, #2
	blo	.LBB59_22
@ BB#21:                                @   in Loop: Header=BB59_19 Depth=1
	mov	r0, r7
	bl	__modsi3(PLT)
	cmp	r0, #0
	beq	.LBB59_23
.LBB59_22:                              @   in Loop: Header=BB59_19 Depth=1
	mov	r0, r5
	mov	r1, r10
	mov	r2, r9
	b	.LBB59_24
.LBB59_23:                              @   in Loop: Header=BB59_19 Depth=1
	mov	r0, r5
	mov	r1, r10
	ldr	r2, [sp, #36]           @ 4-byte Reload
.LBB59_24:                              @   in Loop: Header=BB59_19 Depth=1
	bl	halide_string_to_string(PLT)
	mov	r5, r0
.LBB59_25:                              @   in Loop: Header=BB59_19 Depth=1
	ldr	r0, [r6, #28]
	mov	r1, r10
	ldr	r2, [r0, r7, lsl #2]
	mov	r0, #1
	str	r0, [sp]
	mov	r0, r5
	asr	r3, r2, #31
	bl	halide_int64_to_string(PLT)
	mov	r5, r0
	ldr	r0, [r6, #24]
	add	r7, r7, #1
	cmp	r7, r0
	blt	.LBB59_19
	b	.LBB59_58
.LBB59_26:                              @ %.lr.ph21.preheader.loopexit
	add	r8, r1, #14
	str	r7, [sp, #24]           @ 4-byte Spill
.LBB59_27:                              @ %.lr.ph21.preheader
	add	r0, r8, #1
	mov	r7, #48
	cmp	r0, #48
	movls	r0, r7
	sub	r1, r0, r8
	cmp	r1, #3
	bls	.LBB59_31
@ BB#28:                                @ %min.iters.checked
	mov	r2, r1
	add	r0, sp, #40
	bfc	r2, #0, #2
	cmp	r2, #0
	beq	.LBB59_32
@ BB#29:                                @ %vector.body.preheader
	str	r2, [sp, #8]            @ 4-byte Spill
	add	r0, r0, r8
	ldr	r2, [sp, #8]            @ 4-byte Reload
	str	r1, [sp, #4]            @ 4-byte Spill
	mov	r1, #0
	bl	memset(PLT)
	ldr	r0, [sp, #8]            @ 4-byte Reload
	ldr	r1, [sp, #4]            @ 4-byte Reload
	cmp	r1, r0
	beq	.LBB59_33
@ BB#30:
	add	r8, r0, r8
.LBB59_31:
	add	r0, sp, #40
.LBB59_32:                              @ %.lr.ph21.preheader8
	add	r1, r8, #1
	add	r0, r0, r8
	cmp	r1, #48
	movhi	r7, r1
	mov	r1, #0
	sub	r2, r7, r8
	bl	memset(PLT)
.LBB59_33:                              @ %.preheader12
	ldr	r8, [sp, #32]           @ 4-byte Reload
	add	lr, sp, #40
	cmp	r9, #0
	beq	.LBB59_41
@ BB#34:                                @ %.lr.ph19
	ldr	r7, [r6, #20]
	mov	r1, #0
	cmp	r9, #4
	blo	.LBB59_40
@ BB#35:                                @ %min.iters.checked48
	mov	r12, r9
	bfc	r12, #0, #2
	cmp	r12, #0
	beq	.LBB59_40
@ BB#36:                                @ %vector.memcheck
	add	r0, r9, lr
	add	r3, lr, #48
	add	r0, r0, #47
	cmp	r7, r0
	addls	r0, r9, r7
	subls	r0, r0, #1
	cmpls	r3, r0
	bls	.LBB59_40
@ BB#37:                                @ %vector.body44.preheader
	mov	r1, r9
	mov	r0, r7
	bfc	r1, #0, #2
.LBB59_38:                              @ %vector.body44
                                        @ =>This Inner Loop Header: Depth=1
	ldr	r2, [r0], #4
	subs	r1, r1, #4
	str	r2, [r3], #4
	bne	.LBB59_38
@ BB#39:                                @ %middle.block45
	mov	r1, r12
	cmp	r9, r12
	beq	.LBB59_41
.LBB59_40:                              @ %scalar.ph46
                                        @ =>This Inner Loop Header: Depth=1
	ldrb	r0, [r7, r1]
	add	r2, lr, r1
	add	r1, r1, #1
	cmp	r1, r9
	strb	r0, [r2, #48]
	blo	.LBB59_40
.LBB59_41:                              @ %.preheader
	ldr	r0, [sp, #24]           @ 4-byte Reload
	tst	r0, #255
	beq	.LBB59_51
@ BB#42:                                @ %.lr.ph
	ldr	r6, [r6, #28]
	cmp	r10, #1
	mov	r1, r10
	mov	r3, #0
	movls	r1, #1
	cmp	r1, #3
	bls	.LBB59_49
@ BB#43:                                @ %min.iters.checked70
	ands	r12, r1, #1020
	beq	.LBB59_49
@ BB#44:                                @ %vector.memcheck83
	add	r0, r1, r9
	add	r0, r0, lr
	add	r0, r0, #47
	cmp	r6, r0
	bhi	.LBB59_46
@ BB#45:                                @ %vector.memcheck83
	ldr	r0, [sp, #16]           @ 4-byte Reload
	add	r7, r1, r6
	sub	r7, r7, #1
	add	r0, lr, r0
	cmp	r0, r7
	bls	.LBB59_49
.LBB59_46:                              @ %vector.body65.preheader
	ldr	r0, [sp, #20]           @ 4-byte Reload
	mov	r3, #1
	ldr	r2, [sp, #12]           @ 4-byte Reload
	cmp	r10, #1
	mla	r0, r5, r0, lr
	lslhi	r3, r2, #2
	and	r3, r3, #1020
	add	r7, r0, #48
	mov	r0, r6
.LBB59_47:                              @ %vector.body65
                                        @ =>This Inner Loop Header: Depth=1
	ldr	r2, [r0], #4
	subs	r3, r3, #4
	str	r2, [r7], #4
	bne	.LBB59_47
@ BB#48:                                @ %middle.block66
	mov	r3, r12
	cmp	r1, r12
	beq	.LBB59_51
.LBB59_49:                              @ %scalar.ph67.preheader
	ldr	r0, [sp, #20]           @ 4-byte Reload
	mla	r0, r5, r0, lr
.LBB59_50:                              @ %scalar.ph67
                                        @ =>This Inner Loop Header: Depth=1
	ldrb	r1, [r6, r3]
	add	r2, r0, r3
	add	r3, r3, #1
	cmp	r3, r10
	strb	r1, [r2, #48]
	blo	.LBB59_50
.LBB59_51:                              @ %._crit_edge.i
                                        @ =>This Loop Header: Depth=1
                                        @     Child Loop BB59_52 Depth 2
	ldr	r0, .LCPI59_22
	mov	r2, #1
	dmb	ish
.LPC59_22:
	ldr	r0, [pc, r0]
.LBB59_52:                              @ %atomicrmw.start34
                                        @   Parent Loop BB59_51 Depth=1
                                        @ =>  This Inner Loop Header: Depth=2
	ldrex	r1, [r0]
	strex	r3, r2, [r0]
	cmp	r3, #0
	bne	.LBB59_52
@ BB#53:                                @ %atomicrmw.end33
                                        @   in Loop: Header=BB59_51 Depth=1
	dmb	ish
	cmp	r1, #0
	bne	.LBB59_51
@ BB#54:                                @ %_ZN6Halide7Runtime8Internal14ScopedSpinLockC2EPVi.exit
	ldr	r5, [sp, #28]           @ 4-byte Reload
	add	r1, sp, #40
	ldr	r0, [sp, #36]           @ 4-byte Reload
	mov	r2, r5
	bl	write(PLT)
	cmp	r0, r5
	beq	.LBB59_56
@ BB#55:
	ldr	r0, .LCPI59_23
.LPC59_23:
	add	r1, pc, r0
	mov	r0, r8
	bl	halide_print(PLT)
	bl	abort(PLT)
.LBB59_56:
	ldr	r0, .LCPI59_24
	mov	r1, #0
	dmb	ish
.LPC59_24:
	ldr	r0, [pc, r0]
	str	r1, [r0]
	b	.LBB59_113
.LBB59_57:
	str	r10, [sp, #28]          @ 4-byte Spill
	mov	r10, r7
	str	r9, [sp, #20]           @ 4-byte Spill
.LBB59_58:                              @ %._crit_edge31
	ldrh	r0, [r6, #14]
	ldr	r7, [sp, #20]           @ 4-byte Reload
	cmp	r0, #1
	bls	.LBB59_60
@ BB#59:
	ldr	r0, .LCPI59_10
.LPC59_10:
	add	r2, pc, r0
	b	.LBB59_61
.LBB59_60:
	ldr	r0, .LCPI59_9
.LPC59_9:
	add	r2, pc, r0
.LBB59_61:
	mov	r0, r5
	mov	r1, r10
	bl	halide_string_to_string(PLT)
	mov	r12, r0
	ldr	r0, [sp, #28]           @ 4-byte Reload
	cmp	r0, #1
	bgt	.LBB59_64
@ BB#62:
	ldrh	r0, [r6, #14]
	cmp	r0, #2
	blo	.LBB59_65
@ BB#63:
	ldr	r0, .LCPI59_12
.LPC59_12:
	add	r2, pc, r0
	b	.LBB59_66
.LBB59_64:
	ldr	r6, [sp, #32]           @ 4-byte Reload
	b	.LBB59_106
.LBB59_65:
	ldr	r0, .LCPI59_11
.LPC59_11:
	add	r2, pc, r0
.LBB59_66:                              @ %.preheader14
	mov	r0, r12
	mov	r1, r10
	bl	halide_string_to_string(PLT)
	mov	r12, r0
	ldrh	r0, [r6, #14]
	cmp	r0, #0
	beq	.LBB59_104
@ BB#67:                                @ %.lr.ph26
	ldr	r0, .LCPI59_13
	mov	r7, #0
	str	r10, [sp, #36]          @ 4-byte Spill
	mov	r9, #0
.LPC59_13:
	add	r0, pc, r0
	mov	r5, #0
	str	r0, [sp, #28]           @ 4-byte Spill
	mov	r10, #0
	ldr	r0, .LCPI59_14
.LPC59_14:
	add	r0, pc, r0
	str	r0, [sp, #16]           @ 4-byte Spill
.LBB59_68:                              @ =>This Inner Loop Header: Depth=1
	cmp	r10, #1
	blt	.LBB59_70
@ BB#69:                                @   in Loop: Header=BB59_68 Depth=1
	ldr	r1, [sp, #36]           @ 4-byte Reload
	mov	r0, r12
	ldr	r2, [sp, #28]           @ 4-byte Reload
	bl	halide_string_to_string(PLT)
	mov	r12, r0
.LBB59_70:                              @   in Loop: Header=BB59_68 Depth=1
	ldrb	r0, [r6, #12]
	cmp	r0, #3
	bhi	.LBB59_101
@ BB#71:                                @   in Loop: Header=BB59_68 Depth=1
	lsl	r0, r0, #2
	adr	r1, .LJTI59_0
	ldr	r0, [r0, r1]
	add	pc, r0, r1
@ BB#72:
	.align	2
.LJTI59_0:
	.long	.LBB59_73-.LJTI59_0
	.long	.LBB59_76-.LJTI59_0
	.long	.LBB59_79-.LJTI59_0
	.long	.LBB59_82-.LJTI59_0
.LBB59_73:                              @   in Loop: Header=BB59_68 Depth=1
	cmp	r8, #16
	beq	.LBB59_84
@ BB#74:                                @   in Loop: Header=BB59_68 Depth=1
	cmp	r8, #8
	bne	.LBB59_85
@ BB#75:                                @   in Loop: Header=BB59_68 Depth=1
	ldr	r0, [r6, #20]
	add	r0, r0, r10
	ldrsb	r2, [r0]
	b	.LBB59_87
.LBB59_76:                              @   in Loop: Header=BB59_68 Depth=1
	cmp	r8, #16
	beq	.LBB59_88
@ BB#77:                                @   in Loop: Header=BB59_68 Depth=1
	cmp	r8, #8
	bne	.LBB59_90
@ BB#78:                                @   in Loop: Header=BB59_68 Depth=1
	ldr	r0, [r6, #20]
	ldrb	r2, [r0, r10]
	b	.LBB59_89
.LBB59_79:                              @   in Loop: Header=BB59_68 Depth=1
	cmp	r8, #15
	ble	.LBB59_83
@ BB#80:                                @   in Loop: Header=BB59_68 Depth=1
	cmp	r8, #32
	bne	.LBB59_92
@ BB#81:                                @   in Loop: Header=BB59_68 Depth=1
	ldr	r0, [r6, #20]
	mov	r2, #0
	ldr	r1, [sp, #36]           @ 4-byte Reload
	add	r0, r0, r7
	vldr	s0, [r0]
	mov	r0, r12
	vcvt.f64.f32	d0, s0
	bl	halide_double_to_string(PLT)
	b	.LBB59_100
.LBB59_82:                              @   in Loop: Header=BB59_68 Depth=1
	ldr	r0, [r6, #20]
	ldr	r1, [sp, #36]           @ 4-byte Reload
	ldr	r2, [r0, r10, lsl #2]
	mov	r0, r12
	bl	halide_pointer_to_string(PLT)
	b	.LBB59_100
.LBB59_83:                              @ %.thread11
                                        @   in Loop: Header=BB59_68 Depth=1
	ldr	r0, [sp, #32]           @ 4-byte Reload
	ldr	r1, [sp, #16]           @ 4-byte Reload
	str	r12, [sp, #24]          @ 4-byte Spill
	bl	halide_print(PLT)
	bl	abort(PLT)
	ldr	r0, [sp, #24]           @ 4-byte Reload
	ldr	r1, [r6, #20]
	b	.LBB59_98
.LBB59_84:                              @   in Loop: Header=BB59_68 Depth=1
	ldr	r0, [r6, #20]
	add	r0, r0, r9
	ldrsh	r2, [r0]
	b	.LBB59_87
.LBB59_85:                              @   in Loop: Header=BB59_68 Depth=1
	ldr	r0, [r6, #20]
	cmp	r8, #32
	bne	.LBB59_94
@ BB#86:                                @   in Loop: Header=BB59_68 Depth=1
	ldr	r2, [r0, r7]
.LBB59_87:                              @   in Loop: Header=BB59_68 Depth=1
	asr	r3, r2, #31
	mov	r0, #1
	str	r0, [sp]
	b	.LBB59_95
.LBB59_88:                              @   in Loop: Header=BB59_68 Depth=1
	ldr	r0, [r6, #20]
	add	r0, r0, r9
	ldrh	r2, [r0]
.LBB59_89:                              @   in Loop: Header=BB59_68 Depth=1
	ldr	r1, [sp, #36]           @ 4-byte Reload
	mov	r0, #1
	str	r0, [sp]
	mov	r0, r12
	mov	r3, #0
	bl	halide_int64_to_string(PLT)
	b	.LBB59_100
.LBB59_90:                              @   in Loop: Header=BB59_68 Depth=1
	ldr	r0, [r6, #20]
	cmp	r8, #32
	bne	.LBB59_96
@ BB#91:                                @   in Loop: Header=BB59_68 Depth=1
	ldr	r2, [r0, r7]
	mov	r0, #1
	ldr	r1, [sp, #36]           @ 4-byte Reload
	mov	r3, #0
	str	r0, [sp]
	mov	r0, r12
	bl	halide_uint64_to_string(PLT)
	b	.LBB59_100
.LBB59_92:                              @   in Loop: Header=BB59_68 Depth=1
	ldr	r1, [r6, #20]
	cmp	r8, #16
	str	r12, [sp, #24]          @ 4-byte Spill
	bne	.LBB59_97
@ BB#93:                                @   in Loop: Header=BB59_68 Depth=1
	add	r0, r1, r9
	ldrh	r0, [r0]
	bl	halide_float16_bits_to_double(PLT)
	ldr	r0, [sp, #24]           @ 4-byte Reload
	b	.LBB59_99
.LBB59_94:                              @   in Loop: Header=BB59_68 Depth=1
	ldr	r2, [r0, r5]!
	ldr	r3, [r0, #4]
	mov	r0, #1
	str	r0, [sp]
.LBB59_95:                              @   in Loop: Header=BB59_68 Depth=1
	ldr	r1, [sp, #36]           @ 4-byte Reload
	mov	r0, r12
	bl	halide_int64_to_string(PLT)
	b	.LBB59_100
.LBB59_96:                              @   in Loop: Header=BB59_68 Depth=1
	ldr	r2, [r0, r5]!
	ldr	r1, [sp, #36]           @ 4-byte Reload
	ldr	r3, [r0, #4]
	mov	r0, #1
	str	r0, [sp]
	mov	r0, r12
	bl	halide_uint64_to_string(PLT)
	b	.LBB59_100
.LBB59_97:                              @   in Loop: Header=BB59_68 Depth=1
	ldr	r0, [sp, #24]           @ 4-byte Reload
.LBB59_98:                              @   in Loop: Header=BB59_68 Depth=1
	add	r1, r1, r5
	vldr	d0, [r1]
.LBB59_99:                              @   in Loop: Header=BB59_68 Depth=1
	ldr	r1, [sp, #36]           @ 4-byte Reload
	mov	r2, #1
	bl	halide_double_to_string(PLT)
.LBB59_100:                             @   in Loop: Header=BB59_68 Depth=1
	mov	r12, r0
.LBB59_101:                             @   in Loop: Header=BB59_68 Depth=1
	ldrh	r0, [r6, #14]
	add	r10, r10, #1
	add	r7, r7, #4
	add	r9, r9, #2
	add	r5, r5, #8
	cmp	r10, r0
	blt	.LBB59_68
@ BB#102:                               @ %._crit_edge
	ldr	r6, [sp, #32]           @ 4-byte Reload
	cmp	r0, #1
	ldr	r7, [sp, #20]           @ 4-byte Reload
	bls	.LBB59_105
@ BB#103:
	ldr	r10, [sp, #36]          @ 4-byte Reload
	ldr	r0, .LCPI59_15
.LPC59_15:
	add	r2, pc, r0
	mov	r0, r12
	mov	r1, r10
	bl	halide_string_to_string(PLT)
	mov	r12, r0
	b	.LBB59_106
.LBB59_104:
	ldr	r6, [sp, #32]           @ 4-byte Reload
	ldr	r7, [sp, #20]           @ 4-byte Reload
	b	.LBB59_106
.LBB59_105:
	ldr	r10, [sp, #36]          @ 4-byte Reload
.LBB59_106:                             @ %._crit_edge.thread
	ldr	r0, .LCPI59_16
	mov	r1, r10
.LPC59_16:
	add	r2, pc, r0
	mov	r0, r12
	bl	halide_string_to_string(PLT)
	ldr	r0, .LCPI59_17
	mov	r1, #1
.LPC59_17:
	ldr	r0, [pc, r0]
.LBB59_107:                             @ %._crit_edge.i9
                                        @ =>This Loop Header: Depth=1
                                        @     Child Loop BB59_108 Depth 2
	dmb	ish
.LBB59_108:                             @ %atomicrmw.start37
                                        @   Parent Loop BB59_107 Depth=1
                                        @ =>  This Inner Loop Header: Depth=2
	ldrex	r2, [r0]
	strex	r3, r1, [r0]
	cmp	r3, #0
	bne	.LBB59_108
@ BB#109:                               @ %atomicrmw.end36
                                        @   in Loop: Header=BB59_107 Depth=1
	dmb	ish
	cmp	r2, #0
	bne	.LBB59_107
@ BB#110:                               @ %_ZN6Halide7Runtime8Internal14ScopedSpinLockC2EPVi.exit10
	ldr	r0, .LCPI59_18
	cmp	r7, #0
	mov	r1, r7
.LPC59_19:
	addeq	r1, pc, r0
	mov	r0, r6
	bl	halide_print(PLT)
	ldr	r0, .LCPI59_19
	mov	r1, #0
	dmb	ish
	cmp	r7, #0
.LPC59_18:
	ldr	r0, [pc, r0]
	str	r1, [r0]
	bne	.LBB59_112
@ BB#111:
	ldr	r0, .LCPI59_20
.LPC59_20:
	add	r1, pc, r0
	mov	r0, r6
	bl	halide_error(PLT)
.LBB59_112:                             @ %_ZN6Halide7Runtime8Internal12_GLOBAL__N_17PrinterILi2ELy1024EED2Ev.exit
	mov	r0, r6
	mov	r1, r7
	bl	halide_free(PLT)
.LBB59_113:
	mov	r0, r4
	sub	sp, r11, #28
	pop	{r4, r5, r6, r7, r8, r9, r10, r11, pc}
	.align	2
@ BB#114:
.LCPI59_0:
	.long	_ZZN6Halide7Runtime8Internal13default_traceEPvPK18halide_trace_eventE3ids-(.LPC59_0+8)
.LCPI59_1:
	.long	.L.str.2.39-(.LPC59_1+8)
.LCPI59_2:
	.long	.L_ZZN6Halide7Runtime8Internal13default_traceEPvPK18halide_trace_eventE11event_types-(.LPC59_5+8)
.LCPI59_3:
	.long	.L.str.13.50-(.LPC59_4+8)
.LCPI59_4:
	.long	.L.str.25.132-(.LPC59_3+8)
.LCPI59_5:
	.long	.L.str.15.52-(.LPC59_2+8)
.LCPI59_6:
	.long	.L.str.16.53-(.LPC59_6+8)
.LCPI59_7:
	.long	.L.str.18.55-(.LPC59_7+8)
.LCPI59_8:
	.long	.L.str.17.54-(.LPC59_8+8)
.LCPI59_9:
	.long	.L.str.8.115-(.LPC59_9+8)
.LCPI59_10:
	.long	.L.str.19.56-(.LPC59_10+8)
.LCPI59_11:
	.long	.L.str.22.59-(.LPC59_11+8)
.LCPI59_12:
	.long	.L.str.21.58-(.LPC59_12+8)
.LCPI59_13:
	.long	.L.str.18.55-(.LPC59_13+8)
.LCPI59_14:
	.long	.L.str.23.60-(.LPC59_14+8)
.LCPI59_15:
	.long	.L.str.24.61-(.LPC59_15+8)
.LCPI59_16:
	.long	.L.str.25.62-(.LPC59_16+8)
.LCPI59_17:
.Ltmp58:
	.long	_ZN6Halide7Runtime8Internal22halide_trace_file_lockE(GOT_PREL)-((.LPC59_17+8)-.Ltmp58)
.LCPI59_18:
	.long	.L.str.18.147-(.LPC59_19+8)
.LCPI59_19:
.Ltmp59:
	.long	_ZN6Halide7Runtime8Internal22halide_trace_file_lockE(GOT_PREL)-((.LPC59_18+8)-.Ltmp59)
.LCPI59_20:
	.long	.L.str.18.147-(.LPC59_20+8)
.LCPI59_21:
	.long	.L.str.37-(.LPC59_21+8)
.LCPI59_22:
.Ltmp60:
	.long	_ZN6Halide7Runtime8Internal22halide_trace_file_lockE(GOT_PREL)-((.LPC59_22+8)-.Ltmp60)
.LCPI59_23:
	.long	.L.str.1.38-(.LPC59_23+8)
.LCPI59_24:
.Ltmp61:
	.long	_ZN6Halide7Runtime8Internal22halide_trace_file_lockE(GOT_PREL)-((.LPC59_24+8)-.Ltmp61)
.Lfunc_end59:
	.size	_ZN6Halide7Runtime8Internal13default_traceEPvPK18halide_trace_event, .Lfunc_end59-_ZN6Halide7Runtime8Internal13default_traceEPvPK18halide_trace_event
	.cantunwind
	.fnend

	.section	.text.halide_get_trace_file,"ax",%progbits
	.weak	halide_get_trace_file
	.align	2
	.type	halide_get_trace_file,%function
halide_get_trace_file:                  @ @halide_get_trace_file
	.fnstart
@ BB#0:
	.save	{r4, r5, r11, lr}
	push	{r4, r5, r11, lr}
	.setfp	r11, sp, #8
	add	r11, sp, #8
	mov	r4, r0
	ldr	r0, .LCPI60_0
	mov	r1, #1
.LPC60_0:
	ldr	r0, [pc, r0]
.LBB60_1:                               @ %._crit_edge.i
                                        @ =>This Loop Header: Depth=1
                                        @     Child Loop BB60_2 Depth 2
	dmb	ish
.LBB60_2:                               @ %atomicrmw.start
                                        @   Parent Loop BB60_1 Depth=1
                                        @ =>  This Inner Loop Header: Depth=2
	ldrex	r2, [r0]
	strex	r3, r1, [r0]
	cmp	r3, #0
	bne	.LBB60_2
@ BB#3:                                 @ %atomicrmw.end
                                        @   in Loop: Header=BB60_1 Depth=1
	dmb	ish
	cmp	r2, #0
	bne	.LBB60_1
@ BB#4:                                 @ %_ZN6Halide7Runtime8Internal14ScopedSpinLockC2EPVi.exit
	ldr	r0, .LCPI60_1
.LPC60_1:
	ldr	r0, [pc, r0]
	ldrb	r0, [r0]
	cmp	r0, #0
	bne	.LBB60_10
@ BB#5:
	ldr	r0, .LCPI60_2
.LPC60_2:
	add	r0, pc, r0
	bl	getenv(PLT)
	cmp	r0, #0
	beq	.LBB60_9
@ BB#6:
	movw	r1, #1089
	mov	r2, #420
	bl	open(PLT)
	mov	r5, r0
	cmp	r5, #0
	bgt	.LBB60_8
@ BB#7:
	ldr	r0, .LCPI60_3
.LPC60_3:
	add	r1, pc, r0
	mov	r0, r4
	bl	halide_print(PLT)
	bl	abort(PLT)
.LBB60_8:
	mov	r0, r5
	bl	halide_set_trace_file(PLT)
	ldr	r0, .LCPI60_4
	mov	r1, #1
.LPC60_4:
	ldr	r0, [pc, r0]
	strb	r1, [r0]
	b	.LBB60_10
.LBB60_9:
	mov	r0, #0
	bl	halide_set_trace_file(PLT)
.LBB60_10:
	ldr	r0, .LCPI60_5
	mov	r2, #0
	ldr	r1, .LCPI60_6
.LPC60_6:
	ldr	r0, [pc, r0]
.LPC60_5:
	ldr	r1, [pc, r1]
	ldr	r0, [r0]
	dmb	ish
	str	r2, [r1]
	pop	{r4, r5, r11, pc}
	.align	2
@ BB#11:
.LCPI60_0:
.Ltmp62:
	.long	_ZN6Halide7Runtime8Internal22halide_trace_file_lockE(GOT_PREL)-((.LPC60_0+8)-.Ltmp62)
.LCPI60_1:
.Ltmp63:
	.long	_ZN6Halide7Runtime8Internal29halide_trace_file_initializedE(GOT_PREL)-((.LPC60_1+8)-.Ltmp63)
.LCPI60_2:
	.long	.L.str.26.35-(.LPC60_2+8)
.LCPI60_3:
	.long	.L.str.27.36-(.LPC60_3+8)
.LCPI60_4:
.Ltmp64:
	.long	_ZN6Halide7Runtime8Internal35halide_trace_file_internally_openedE(GOT_PREL)-((.LPC60_4+8)-.Ltmp64)
.LCPI60_5:
.Ltmp65:
	.long	_ZN6Halide7Runtime8Internal17halide_trace_fileE(GOT_PREL)-((.LPC60_6+8)-.Ltmp65)
.LCPI60_6:
.Ltmp66:
	.long	_ZN6Halide7Runtime8Internal22halide_trace_file_lockE(GOT_PREL)-((.LPC60_5+8)-.Ltmp66)
.Lfunc_end60:
	.size	halide_get_trace_file, .Lfunc_end60-halide_get_trace_file
	.cantunwind
	.fnend

	.section	.text.halide_set_trace_file,"ax",%progbits
	.weak	halide_set_trace_file
	.align	2
	.type	halide_set_trace_file,%function
halide_set_trace_file:                  @ @halide_set_trace_file
	.fnstart
@ BB#0:
	ldr	r1, .LCPI61_0
	ldr	r2, .LCPI61_1
.LPC61_1:
	ldr	r1, [pc, r1]
.LPC61_0:
	ldr	r2, [pc, r2]
	str	r0, [r1]
	mov	r0, #1
	strb	r0, [r2]
	bx	lr
	.align	2
@ BB#1:
.LCPI61_0:
.Ltmp67:
	.long	_ZN6Halide7Runtime8Internal17halide_trace_fileE(GOT_PREL)-((.LPC61_1+8)-.Ltmp67)
.LCPI61_1:
.Ltmp68:
	.long	_ZN6Halide7Runtime8Internal29halide_trace_file_initializedE(GOT_PREL)-((.LPC61_0+8)-.Ltmp68)
.Lfunc_end61:
	.size	halide_set_trace_file, .Lfunc_end61-halide_set_trace_file
	.cantunwind
	.fnend

	.section	.text.halide_trace_cleanup,"ax",%progbits
	.weak	halide_trace_cleanup
	.align	2
	.type	halide_trace_cleanup,%function
halide_trace_cleanup:                   @ @halide_trace_cleanup
	.fnstart
@ BB#0:
	b	halide_shutdown_trace(PLT)
.Lfunc_end62:
	.size	halide_trace_cleanup, .Lfunc_end62-halide_trace_cleanup
	.cantunwind
	.fnend

	.section	.text.halide_shutdown_trace,"ax",%progbits
	.weak	halide_shutdown_trace
	.align	2
	.type	halide_shutdown_trace,%function
halide_shutdown_trace:                  @ @halide_shutdown_trace
	.fnstart
@ BB#0:
	ldr	r0, .LCPI63_0
.LPC63_0:
	ldr	r0, [pc, r0]
	ldrb	r0, [r0]
	cmp	r0, #0
	moveq	r0, #0
	bxeq	lr
	.save	{r4, r10, r11, lr}
	push	{r4, r10, r11, lr}
	.setfp	r11, sp, #8
	add	r11, sp, #8
	ldr	r0, .LCPI63_1
.LPC63_3:
	ldr	r4, [pc, r0]
	ldr	r0, [r4]
	bl	close(PLT)
	ldr	r1, .LCPI63_2
	mov	r3, #0
	ldr	r2, .LCPI63_3
	str	r3, [r4]
.LPC63_2:
	ldr	r1, [pc, r1]
.LPC63_1:
	ldr	r2, [pc, r2]
	strb	r3, [r1]
	strb	r3, [r2]
	pop	{r4, r10, r11, pc}
	.align	2
@ BB#1:
.LCPI63_0:
.Ltmp69:
	.long	_ZN6Halide7Runtime8Internal35halide_trace_file_internally_openedE(GOT_PREL)-((.LPC63_0+8)-.Ltmp69)
.LCPI63_1:
.Ltmp70:
	.long	_ZN6Halide7Runtime8Internal17halide_trace_fileE(GOT_PREL)-((.LPC63_3+8)-.Ltmp70)
.LCPI63_2:
.Ltmp71:
	.long	_ZN6Halide7Runtime8Internal29halide_trace_file_initializedE(GOT_PREL)-((.LPC63_2+8)-.Ltmp71)
.LCPI63_3:
.Ltmp72:
	.long	_ZN6Halide7Runtime8Internal35halide_trace_file_internally_openedE(GOT_PREL)-((.LPC63_1+8)-.Ltmp72)
.Lfunc_end63:
	.size	halide_shutdown_trace, .Lfunc_end63-halide_shutdown_trace
	.cantunwind
	.fnend

	.section	.text.halide_set_custom_trace,"ax",%progbits
	.weak	halide_set_custom_trace
	.align	2
	.type	halide_set_custom_trace,%function
halide_set_custom_trace:                @ @halide_set_custom_trace
	.fnstart
@ BB#0:
	ldr	r1, .LCPI64_0
.LPC64_0:
	ldr	r2, [pc, r1]
	ldr	r1, [r2]
	str	r0, [r2]
	mov	r0, r1
	bx	lr
	.align	2
@ BB#1:
.LCPI64_0:
.Ltmp73:
	.long	_ZN6Halide7Runtime8Internal19halide_custom_traceE(GOT_PREL)-((.LPC64_0+8)-.Ltmp73)
.Lfunc_end64:
	.size	halide_set_custom_trace, .Lfunc_end64-halide_set_custom_trace
	.cantunwind
	.fnend

	.section	.text.halide_trace,"ax",%progbits
	.weak	halide_trace
	.align	2
	.type	halide_trace,%function
halide_trace:                           @ @halide_trace
	.fnstart
@ BB#0:
	ldr	r2, .LCPI65_0
.LPC65_0:
	ldr	r2, [pc, r2]
	ldr	r2, [r2]
	bx	r2
	.align	2
@ BB#1:
.LCPI65_0:
.Ltmp74:
	.long	_ZN6Halide7Runtime8Internal19halide_custom_traceE(GOT_PREL)-((.LPC65_0+8)-.Ltmp74)
.Lfunc_end65:
	.size	halide_trace, .Lfunc_end65-halide_trace
	.cantunwind
	.fnend

	.section	.text._ZN6Halide7Runtime8Internal18has_tiff_extensionEPKc,"ax",%progbits
	.weak	_ZN6Halide7Runtime8Internal18has_tiff_extensionEPKc
	.align	2
	.type	_ZN6Halide7Runtime8Internal18has_tiff_extensionEPKc,%function
_ZN6Halide7Runtime8Internal18has_tiff_extensionEPKc: @ @_ZN6Halide7Runtime8Internal18has_tiff_extensionEPKc
	.fnstart
@ BB#0:
	sub	r2, r0, #1
.LBB66_1:                               @ =>This Inner Loop Header: Depth=1
	ldrb	r1, [r2, #1]!
	cmp	r1, #0
	bne	.LBB66_1
@ BB#2:                                 @ %.preheader
	mov	r1, #0
	cmp	r2, r0
	beq	.LBB66_13
.LBB66_3:                               @ %.lr.ph
                                        @ =>This Inner Loop Header: Depth=1
	tst	r1, #1
	bne	.LBB66_6
@ BB#4:                                 @   in Loop: Header=BB66_3 Depth=1
	ldrb	r3, [r2, #-1]!
	mov	r1, #0
	cmp	r3, #46
	movweq	r1, #1
	cmp	r0, r2
	bne	.LBB66_3
@ BB#5:                                 @ %.critedge
	mov	r1, #0
	cmp	r3, #46
	bne	.LBB66_13
	b	.LBB66_7
.LBB66_6:
	mov	r0, r2
.LBB66_7:                               @ %.critedge.thread
	ldrb	r1, [r0, #1]
	orr	r2, r1, #32
	mov	r1, #0
	cmp	r2, #116
	bne	.LBB66_13
@ BB#8:
	ldrb	r2, [r0, #2]
	orr	r2, r2, #32
	cmp	r2, #105
	bne	.LBB66_13
@ BB#9:
	ldrb	r2, [r0, #3]
	orr	r2, r2, #32
	cmp	r2, #102
	bne	.LBB66_13
@ BB#10:
	ldrb	r2, [r0, #4]
	mov	r1, #1
	cmp	r2, #0
	beq	.LBB66_13
@ BB#11:
	cmp	r2, #70
	cmpne	r2, #102
	bne	.LBB66_14
@ BB#12:
	ldrb	r0, [r0, #5]
	mov	r1, #0
	cmp	r0, #0
	movweq	r1, #1
.LBB66_13:                              @ %.critedge.thread10
	mov	r0, r1
	bx	lr
.LBB66_14:
	mov	r1, #0
	mov	r0, r1
	bx	lr
.Lfunc_end66:
	.size	_ZN6Halide7Runtime8Internal18has_tiff_extensionEPKc, .Lfunc_end66-_ZN6Halide7Runtime8Internal18has_tiff_extensionEPKc
	.cantunwind
	.fnend

	.section	.text._ZN6Halide7Runtime8Internal19get_pointer_to_dataEiiiiPK8buffer_t,"ax",%progbits
	.weak	_ZN6Halide7Runtime8Internal19get_pointer_to_dataEiiiiPK8buffer_t
	.align	2
	.type	_ZN6Halide7Runtime8Internal19get_pointer_to_dataEiiiiPK8buffer_t,%function
_ZN6Halide7Runtime8Internal19get_pointer_to_dataEiiiiPK8buffer_t: @ @_ZN6Halide7Runtime8Internal19get_pointer_to_dataEiiiiPK8buffer_t
	.fnstart
@ BB#0:
	.save	{r4, r5, r6, r7, r11, lr}
	push	{r4, r5, r6, r7, r11, lr}
	ldr	r12, [sp, #24]
	add	r6, r12, #32
	ldr	lr, [r12, #8]
	ldm	r6, {r4, r5, r6}
	ldr	r7, [r12, #28]
	mul	r0, r7, r0
	mla	r0, r4, r1, r0
	ldr	r1, [r12, #60]
	mla	r0, r5, r2, r0
	mla	r0, r6, r3, r0
	mla	r0, r0, r1, lr
	pop	{r4, r5, r6, r7, r11, pc}
.Lfunc_end67:
	.size	_ZN6Halide7Runtime8Internal19get_pointer_to_dataEiiiiPK8buffer_t, .Lfunc_end67-_ZN6Halide7Runtime8Internal19get_pointer_to_dataEiiiiPK8buffer_t
	.cantunwind
	.fnend

	.section	.text.halide_debug_to_file,"ax",%progbits
	.weak	halide_debug_to_file
	.align	4
	.type	halide_debug_to_file,%function
halide_debug_to_file:                   @ @halide_debug_to_file
	.fnstart
@ BB#0:
	.save	{r4, r5, r6, r7, r8, r9, r10, r11, lr}
	push	{r4, r5, r6, r7, r8, r9, r10, r11, lr}
	.setfp	r11, sp, #28
	add	r11, sp, #28
	.pad	#52
	sub	sp, sp, #52
	.pad	#4096
	sub	sp, sp, #4096
	mov	r5, r3
	mov	r4, r1
	mov	r1, r5
	mov	r6, r2
	bl	halide_copy_to_host(PLT)
	ldr	r0, .LCPI68_0
.LPC68_0:
	add	r1, pc, r0
	mov	r0, r4
	bl	fopen(PLT)
	mov	r1, r0
	mvn	r0, #0
	cmp	r1, #0
	beq	.LBB68_26
@ BB#1:
	str	r6, [sp, #32]           @ 4-byte Spill
	mov	r0, r4
	ldr	r6, [r5, #24]
	ldr	r8, [r5, #20]
	cmp	r6, #1
	ldr	r7, [r5, #16]
	movwlt	r6, #1
	cmp	r8, #1
	ldr	r10, [r5, #12]
	movwlt	r8, #1
	cmp	r7, #1
	str	r1, [sp, #24]           @ 4-byte Spill
	movwlt	r7, #1
	cmp	r10, #1
	ldr	r9, [r5, #60]
	movwlt	r10, #1
	bl	_ZN6Halide7Runtime8Internal18has_tiff_extensionEPKc(PLT)
	cmp	r0, #1
	bne	.LBB68_11
@ BB#2:
	movw	r1, #18761
	mov	lr, #4
	strh	r1, [sp, #40]
	mov	r1, #42
	movw	r3, #257
	mov	r0, r6
	strh	r1, [sp, #42]
	mov	r1, #8
	lsl	r6, r9, #3
	cmp	r8, #5
	str	r1, [sp, #44]
	mov	r1, #15
	strh	r1, [sp, #48]
	mov	r1, #256
	mov	r2, r9
	mov	r9, r0
	strh	r1, [sp, #50]
	mov	r1, #1
	add	r12, sp, #170
	strh	lr, [sp, #52]
	str	r1, [sp, #54]
	str	r10, [sp, #58]
	strh	r3, [sp, #62]
	movw	r3, #258
	strh	lr, [sp, #64]
	str	r1, [sp, #66]
	str	r7, [sp, #70]
	strh	r3, [sp, #74]
	mov	r3, #3
	strh	r3, [sp, #76]
	str	r1, [sp, #78]
	strh	r6, [sp, #82]
	movw	r6, #259
	strh	r6, [sp, #86]
	movw	r6, #262
	str	r5, [sp, #36]           @ 4-byte Spill
	orr	r5, r0, #1
	strh	r3, [sp, #88]
	str	r1, [sp, #90]
	strh	r1, [sp, #94]
	strh	r6, [sp, #98]
	mov	r6, #0
	movwlt	r6, #1
	cmp	r5, #1
	movwne	r5, #0
	strh	r3, [sp, #100]
	ands	r4, r6, r5
	mul	r5, r7, r10
	movne	r9, r8
	str	r4, [sp, #20]           @ 4-byte Spill
	cmp	r9, #2
	mov	r4, #1
	movwgt	r4, #2
	str	r1, [sp, #102]
	strh	r4, [sp, #106]
	movw	r4, #273
	movw	r6, #277
	cmp	r9, #1
	strh	r4, [sp, #110]
	mov	r4, #210
	strh	lr, [sp, #112]
	str	r9, [sp, #114]
	str	r4, [sp, #118]
	add	r4, r4, r9, lsl #2
	strh	r6, [sp, #122]
	movw	r6, #278
	strh	r3, [sp, #124]
	str	r1, [sp, #126]
	strh	r9, [sp, #130]
	strh	r6, [sp, #134]
	movw	r6, #279
	strh	lr, [sp, #136]
	str	r1, [sp, #138]
	str	r7, [sp, #142]
	strh	r6, [sp, #146]
	mul	r6, r5, r8
	strh	lr, [sp, #148]
	mul	r6, r6, r2
	str	r9, [sp, #150]
	str	r0, [sp, #12]           @ 4-byte Spill
	str	r7, [sp, #16]           @ 4-byte Spill
	str	r2, [sp, #8]            @ 4-byte Spill
	muleq	r4, r6, r0
	movw	r6, #282
	ldr	r0, [sp, #32]           @ 4-byte Reload
	str	r5, [sp, #4]            @ 4-byte Spill
	str	r10, [sp, #28]          @ 4-byte Spill
	str	r4, [sp, #154]
	mov	r4, #194
	strh	r6, [sp, #158]
	mov	r6, #5
	strh	r6, [sp, #160]
	str	r1, [sp, #162]
	str	r4, [sp, #166]
	movw	r4, #283
	strh	r4, [r12]
	strh	r6, [r12, #2]
	mov	r6, #202
	str	r1, [sp, #174]
	str	r6, [sp, #178]
	mov	r6, #284
	strh	r6, [r12, #12]
	mov	r6, #2
	strh	r3, [r12, #14]
	str	r1, [sp, #186]
	strh	r6, [r12, #20]
	mov	r6, #296
	strh	r6, [r12, #24]
	ldr	r6, .LCPI68_1
	strh	r3, [r12, #26]
.LPC68_1:
	ldr	r6, [pc, r6]
	str	r1, [sp, #198]
	add	r7, r6, r0, lsl #1
	movw	r6, #339
	strh	r1, [r12, #32]
	ldrh	r7, [r7]
	strh	r6, [r12, #36]
	adr	r6, .LCPI68_2
	ldr	r0, [sp, #20]           @ 4-byte Reload
	ldr	r5, [sp, #24]           @ 4-byte Reload
	vld1.64	{d16, d17}, [r6:128]
	cmp	r0, #0
	mov	r6, r8
	add	r0, sp, #40
	strh	r3, [r12, #38]
	movw	r3, #32997
	movwne	r6, #1
	add	r2, r0, #190
	str	r1, [sp, #210]
	strh	r7, [r12, #44]
	strh	r3, [r12, #48]
	mov	r3, r5
	strh	lr, [r12, #50]
	str	r1, [sp, #222]
	str	r6, [sp, #226]
	vst1.16	{d16, d17}, [r2]
	mov	r2, #1
	str	r1, [sp, #246]
	mov	r1, #210
	bl	fwrite(PLT)
	cmp	r0, #0
	beq	.LBB68_27
@ BB#3:
	cmp	r9, #2
	blt	.LBB68_10
@ BB#4:                                 @ %.lr.ph92
	ldr	r0, [sp, #8]            @ 4-byte Reload
	mov	r4, #0
	ldr	r1, [sp, #4]            @ 4-byte Reload
	sub	r10, r11, #36
	mul	r0, r1, r0
	mov	r1, #210
	add	r1, r1, r9, lsl #3
	mul	r7, r0, r6
	str	r1, [r11, #-36]
.LBB68_5:                               @ =>This Inner Loop Header: Depth=1
	mov	r0, r10
	mov	r1, #4
	mov	r2, #1
	mov	r3, r5
	bl	fwrite(PLT)
	cmp	r0, #0
	beq	.LBB68_27
@ BB#6:                                 @   in Loop: Header=BB68_5 Depth=1
	ldr	r0, [r11, #-36]
	add	r4, r4, #1
	cmp	r4, r9
	add	r0, r0, r7
	str	r0, [r11, #-36]
	blt	.LBB68_5
@ BB#7:                                 @ %.lr.ph88.preheader
	ldr	r0, [sp, #4]            @ 4-byte Reload
	sub	r4, r11, #40
	mul	r0, r6, r0
	mov	r6, #0
	str	r0, [r11, #-40]
.LBB68_8:                               @ %.lr.ph88
                                        @ =>This Inner Loop Header: Depth=1
	mov	r0, r4
	mov	r1, #4
	mov	r2, #1
	mov	r3, r5
	bl	fwrite(PLT)
	cmp	r0, #0
	beq	.LBB68_27
@ BB#9:                                 @   in Loop: Header=BB68_8 Depth=1
	add	r6, r6, #1
	cmp	r6, r9
	blt	.LBB68_8
.LBB68_10:                              @ %.thread42
	ldr	r9, [sp, #8]            @ 4-byte Reload
	ldr	r7, [sp, #16]           @ 4-byte Reload
	ldr	r6, [sp, #12]           @ 4-byte Reload
	ldr	r10, [sp, #28]          @ 4-byte Reload
	ldr	r5, [sp, #36]           @ 4-byte Reload
	b	.LBB68_12
.LBB68_11:
	ldr	r4, [sp, #24]           @ 4-byte Reload
	mov	r1, #20
	ldr	r0, [sp, #32]           @ 4-byte Reload
	mov	r2, #1
	str	r10, [sp, #40]
	str	r7, [sp, #44]
	mov	r3, r4
	str	r8, [sp, #48]
	str	r6, [sp, #52]
	str	r0, [sp, #56]
	add	r0, sp, #40
	bl	fwrite(PLT)
	cmp	r0, #0
	beq	.LBB68_29
.LBB68_12:
	mov	r0, #4096
	mov	r1, r9
	bl	__aeabi_idiv(PLT)
	cmp	r6, #1
	str	r0, [sp, #32]           @ 4-byte Spill
	cmpge	r10, #0
	ble	.LBB68_25
@ BB#13:
	ldr	r0, [sp, #32]           @ 4-byte Reload
	add	r4, sp, #40
	str	r6, [sp, #12]           @ 4-byte Spill
	mov	r6, #0
	str	r7, [sp, #16]           @ 4-byte Spill
	mov	r7, r9
	mul	r0, r0, r9
	str	r5, [sp, #36]           @ 4-byte Spill
	mov	r5, #0
	str	r10, [sp, #28]          @ 4-byte Spill
	str	r8, [sp, #4]            @ 4-byte Spill
	str	r0, [sp, #20]           @ 4-byte Spill
.LBB68_14:                              @ %.preheader.lr.ph.us.preheader.split.us.us
                                        @ =>This Loop Header: Depth=1
                                        @     Child Loop BB68_15 Depth 2
                                        @       Child Loop BB68_16 Depth 3
                                        @         Child Loop BB68_17 Depth 4
	mov	r8, #0
.LBB68_15:                              @ %.lr.ph.us.us.preheader.us.us
                                        @   Parent Loop BB68_14 Depth=1
                                        @ =>  This Loop Header: Depth=2
                                        @       Child Loop BB68_16 Depth 3
                                        @         Child Loop BB68_17 Depth 4
	mov	r9, #0
.LBB68_16:                              @ %.lr.ph.us.us.us.us
                                        @   Parent Loop BB68_14 Depth=1
                                        @     Parent Loop BB68_15 Depth=2
                                        @ =>    This Loop Header: Depth=3
                                        @         Child Loop BB68_17 Depth 4
	mov	r10, #0
.LBB68_17:                              @   Parent Loop BB68_14 Depth=1
                                        @     Parent Loop BB68_15 Depth=2
                                        @       Parent Loop BB68_16 Depth=3
                                        @ =>      This Inner Loop Header: Depth=4
	ldr	r0, [sp, #36]           @ 4-byte Reload
	mov	r1, r9
	mov	r2, r8
	mov	r3, r5
	str	r0, [sp]
	mov	r0, r10
	bl	_ZN6Halide7Runtime8Internal19get_pointer_to_dataEiiiiPK8buffer_t(PLT)
	mov	r1, r0
	mla	r0, r6, r7, r4
	mov	r2, r7
	bl	memcpy(PLT)
	ldr	r0, [sp, #32]           @ 4-byte Reload
	add	r6, r6, #1
	cmp	r6, r0
	bne	.LBB68_19
@ BB#18:                                @   in Loop: Header=BB68_17 Depth=4
	ldr	r1, [sp, #20]           @ 4-byte Reload
	mov	r0, r4
	ldr	r3, [sp, #24]           @ 4-byte Reload
	mov	r2, #1
	bl	fwrite(PLT)
	mov	r6, #0
	cmp	r0, #0
	beq	.LBB68_28
.LBB68_19:                              @   in Loop: Header=BB68_17 Depth=4
	ldr	r0, [sp, #28]           @ 4-byte Reload
	add	r10, r10, #1
	cmp	r10, r0
	blt	.LBB68_17
@ BB#20:                                @ %._crit_edge.us.us.us.us
                                        @   in Loop: Header=BB68_16 Depth=3
	ldr	r0, [sp, #16]           @ 4-byte Reload
	add	r9, r9, #1
	cmp	r9, r0
	blt	.LBB68_16
@ BB#21:                                @ %._crit_edge76.us.loopexit.us.us
                                        @   in Loop: Header=BB68_15 Depth=2
	ldr	r0, [sp, #4]            @ 4-byte Reload
	add	r8, r8, #1
	cmp	r8, r0
	blt	.LBB68_15
@ BB#22:                                @ %._crit_edge80.us-lcssa.us.us
                                        @   in Loop: Header=BB68_14 Depth=1
	ldr	r0, [sp, #12]           @ 4-byte Reload
	add	r5, r5, #1
	cmp	r5, r0
	blt	.LBB68_14
@ BB#23:                                @ %._crit_edge84
	cmp	r6, #1
	blt	.LBB68_25
@ BB#24:
	mul	r1, r6, r7
	ldr	r3, [sp, #24]           @ 4-byte Reload
	add	r0, sp, #40
	mov	r2, #1
	bl	fwrite(PLT)
	cmp	r0, #0
	beq	.LBB68_28
.LBB68_25:                              @ %._crit_edge84.thread
	ldr	r0, [sp, #24]           @ 4-byte Reload
	bl	fclose(PLT)
	mov	r0, #0
.LBB68_26:
	sub	sp, r11, #28
	pop	{r4, r5, r6, r7, r8, r9, r10, r11, pc}
.LBB68_27:
	mov	r0, r5
	b	.LBB68_30
.LBB68_28:                              @ %.us-lcssa.us
	ldr	r0, [sp, #24]           @ 4-byte Reload
	bl	fclose(PLT)
	mvn	r0, #0
	sub	sp, r11, #28
	pop	{r4, r5, r6, r7, r8, r9, r10, r11, pc}
.LBB68_29:                              @ %.critedge
	mov	r0, r4
.LBB68_30:
	bl	fclose(PLT)
	mvn	r0, #1
	sub	sp, r11, #28
	pop	{r4, r5, r6, r7, r8, r9, r10, r11, pc}
	.align	4
@ BB#31:
.LCPI68_2:
	.long	0                       @ 0x0
	.long	1                       @ 0x1
	.long	1                       @ 0x1
	.long	1                       @ 0x1
.LCPI68_0:
	.long	.L.str.65-(.LPC68_0+8)
.LCPI68_1:
.Ltmp75:
	.long	_ZN6Halide7Runtime8Internal30pixel_type_to_tiff_sample_typeE(GOT_PREL)-((.LPC68_1+8)-.Ltmp75)
.Lfunc_end68:
	.size	halide_debug_to_file, .Lfunc_end68-halide_debug_to_file
	.cantunwind
	.fnend

	.section	.text.halide_cache_cleanup,"ax",%progbits
	.weak	halide_cache_cleanup
	.align	2
	.type	halide_cache_cleanup,%function
halide_cache_cleanup:                   @ @halide_cache_cleanup
	.fnstart
@ BB#0:
	b	halide_memoization_cache_cleanup(PLT)
.Lfunc_end69:
	.size	halide_cache_cleanup, .Lfunc_end69-halide_cache_cleanup
	.cantunwind
	.fnend

	.section	.text.halide_memoization_cache_cleanup,"ax",%progbits
	.weak	halide_memoization_cache_cleanup
	.align	2
	.type	halide_memoization_cache_cleanup,%function
halide_memoization_cache_cleanup:       @ @halide_memoization_cache_cleanup
	.fnstart
@ BB#0:
	.save	{r4, r5, r6, r7, r8, r10, r11, lr}
	push	{r4, r5, r6, r7, r8, r10, r11, lr}
	.setfp	r11, sp, #24
	add	r11, sp, #24
	ldr	r0, .LCPI70_0
	mov	r8, #0
	mov	r7, #0
.LPC70_0:
	ldr	r6, [pc, r0]
.LBB70_1:                               @ =>This Loop Header: Depth=1
                                        @     Child Loop BB70_2 Depth 2
	ldr	r4, [r6, r7, lsl #2]
	str	r8, [r6, r7, lsl #2]
	cmp	r4, #0
	beq	.LBB70_3
.LBB70_2:                               @ %.lr.ph
                                        @   Parent Loop BB70_1 Depth=1
                                        @ =>  This Inner Loop Header: Depth=2
	mov	r0, r4
	ldr	r5, [r4]
	bl	_ZN6Halide7Runtime8Internal10CacheEntry7destroyEv(PLT)
	mov	r0, #0
	mov	r1, r4
	bl	halide_free(PLT)
	mov	r4, r5
	cmp	r5, #0
	bne	.LBB70_2
.LBB70_3:                               @ %._crit_edge
                                        @   in Loop: Header=BB70_1 Depth=1
	add	r7, r7, #1
	cmp	r7, #256
	bne	.LBB70_1
@ BB#4:
	ldr	r0, .LCPI70_1
	ldr	r1, .LCPI70_2
.LPC70_2:
	ldr	r2, [pc, r0]
.LPC70_1:
	ldr	r0, [pc, r1]
	mov	r1, #0
	str	r1, [r2]
	str	r1, [r2, #4]
	pop	{r4, r5, r6, r7, r8, r10, r11, lr}
	b	halide_mutex_destroy(PLT)
	.align	2
@ BB#5:
.LCPI70_0:
.Ltmp76:
	.long	_ZN6Halide7Runtime8Internal13cache_entriesE(GOT_PREL)-((.LPC70_0+8)-.Ltmp76)
.LCPI70_1:
.Ltmp77:
	.long	_ZN6Halide7Runtime8Internal18current_cache_sizeE(GOT_PREL)-((.LPC70_2+8)-.Ltmp77)
.LCPI70_2:
.Ltmp78:
	.long	_ZN6Halide7Runtime8Internal16memoization_lockE(GOT_PREL)-((.LPC70_1+8)-.Ltmp78)
.Lfunc_end70:
	.size	halide_memoization_cache_cleanup, .Lfunc_end70-halide_memoization_cache_cleanup
	.cantunwind
	.fnend

	.section	.text._ZN6Halide7Runtime8Internal10CacheEntry7destroyEv,"ax",%progbits
	.weak	_ZN6Halide7Runtime8Internal10CacheEntry7destroyEv
	.align	2
	.type	_ZN6Halide7Runtime8Internal10CacheEntry7destroyEv,%function
_ZN6Halide7Runtime8Internal10CacheEntry7destroyEv: @ @_ZN6Halide7Runtime8Internal10CacheEntry7destroyEv
	.fnstart
@ BB#0:
	.save	{r4, r5, r11, lr}
	push	{r4, r5, r11, lr}
	.setfp	r11, sp, #8
	add	r11, sp, #8
	mov	r4, r0
	mov	r0, #0
	ldr	r1, [r4, #16]
	mov	r5, #0
	bl	halide_free(PLT)
	ldr	r0, [r4, #28]
	cmp	r0, #0
	beq	.LBB71_2
.LBB71_1:                               @ %.lr.ph
                                        @ =>This Inner Loop Header: Depth=1
	mov	r0, r4
	mov	r1, r5
	bl	_ZN6Halide7Runtime8Internal10CacheEntry6bufferEi(PLT)
	mov	r1, r0
	mov	r0, #0
	bl	halide_device_free(PLT)
	mov	r0, r4
	mov	r1, r5
	bl	_ZN6Halide7Runtime8Internal10CacheEntry6bufferEi(PLT)
	ldr	r0, [r0, #8]
	bl	_ZN6Halide7Runtime8Internal21get_pointer_to_headerEPh(PLT)
	mov	r1, r0
	mov	r0, #0
	bl	halide_free(PLT)
	ldr	r0, [r4, #28]
	add	r5, r5, #1
	cmp	r5, r0
	blo	.LBB71_1
.LBB71_2:                               @ %._crit_edge
	pop	{r4, r5, r11, pc}
.Lfunc_end71:
	.size	_ZN6Halide7Runtime8Internal10CacheEntry7destroyEv, .Lfunc_end71-_ZN6Halide7Runtime8Internal10CacheEntry7destroyEv
	.cantunwind
	.fnend

	.section	.text._ZN6Halide7Runtime8Internal10CacheEntry6bufferEi,"ax",%progbits
	.weak	_ZN6Halide7Runtime8Internal10CacheEntry6bufferEi
	.align	2
	.type	_ZN6Halide7Runtime8Internal10CacheEntry6bufferEi,%function
_ZN6Halide7Runtime8Internal10CacheEntry6bufferEi: @ @_ZN6Halide7Runtime8Internal10CacheEntry6bufferEi
	.fnstart
@ BB#0:
	add	r1, r1, r1, lsl #3
	add	r0, r0, r1, lsl #3
	add	r0, r0, #104
	bx	lr
.Lfunc_end72:
	.size	_ZN6Halide7Runtime8Internal10CacheEntry6bufferEi, .Lfunc_end72-_ZN6Halide7Runtime8Internal10CacheEntry6bufferEi
	.cantunwind
	.fnend

	.section	.text._ZN6Halide7Runtime8Internal21get_pointer_to_headerEPh,"ax",%progbits
	.weak	_ZN6Halide7Runtime8Internal21get_pointer_to_headerEPh
	.align	2
	.type	_ZN6Halide7Runtime8Internal21get_pointer_to_headerEPh,%function
_ZN6Halide7Runtime8Internal21get_pointer_to_headerEPh: @ @_ZN6Halide7Runtime8Internal21get_pointer_to_headerEPh
	.fnstart
@ BB#0:
	sub	r0, r0, #16
	bx	lr
.Lfunc_end73:
	.size	_ZN6Halide7Runtime8Internal21get_pointer_to_headerEPh, .Lfunc_end73-_ZN6Halide7Runtime8Internal21get_pointer_to_headerEPh
	.cantunwind
	.fnend

	.section	.text._ZN6Halide7Runtime8Internal8buf_sizeEPK8buffer_t,"ax",%progbits
	.weak	_ZN6Halide7Runtime8Internal8buf_sizeEPK8buffer_t
	.align	2
	.type	_ZN6Halide7Runtime8Internal8buf_sizeEPK8buffer_t,%function
_ZN6Halide7Runtime8Internal8buf_sizeEPK8buffer_t: @ @_ZN6Halide7Runtime8Internal8buf_sizeEPK8buffer_t
	.fnstart
@ BB#0:
	.save	{r4, r5, r6, lr}
	push	{r4, r5, r6, lr}
	mov	r1, r0
	ldr	r5, [r1, #12]
	ldr	r0, [r1, #60]
	ldr	r2, [r1, #16]
	ldr	r3, [r1, #28]
	mul	r5, r5, r0
	ldr	lr, [r1, #20]
	cmp	r3, #0
	ldr	r4, [r1, #32]
	mul	r2, r2, r0
	ldr	r12, [r1, #24]
	rsbmi	r3, r3, #0
	ldr	r6, [r1, #36]
	cmp	r4, #0
	mul	lr, lr, r0
	rsbmi	r4, r4, #0
	ldr	r1, [r1, #40]
	mul	r5, r5, r3
	cmp	r6, #0
	rsbmi	r6, r6, #0
	mul	r3, r2, r4
	cmp	r1, #0
	rsbmi	r1, r1, #0
	mul	r12, r12, r0
	cmp	r5, r0
	movhi	r0, r5
	mul	r2, lr, r6
	cmp	r3, r0
	movhi	r0, r3
	mul	r1, r12, r1
	cmp	r2, r0
	movhi	r0, r2
	cmp	r1, r0
	movhi	r0, r1
	pop	{r4, r5, r6, pc}
.Lfunc_end74:
	.size	_ZN6Halide7Runtime8Internal8buf_sizeEPK8buffer_t, .Lfunc_end74-_ZN6Halide7Runtime8Internal8buf_sizeEPK8buffer_t
	.cantunwind
	.fnend

	.section	.text._ZN6Halide7Runtime8Internal10keys_equalEPKhS3_j,"ax",%progbits
	.weak	_ZN6Halide7Runtime8Internal10keys_equalEPKhS3_j
	.align	2
	.type	_ZN6Halide7Runtime8Internal10keys_equalEPKhS3_j,%function
_ZN6Halide7Runtime8Internal10keys_equalEPKhS3_j: @ @_ZN6Halide7Runtime8Internal10keys_equalEPKhS3_j
	.fnstart
@ BB#0:
	.save	{r11, lr}
	push	{r11, lr}
	.setfp	r11, sp
	mov	r11, sp
	bl	memcmp(PLT)
	mov	r1, #0
	cmp	r0, #0
	movweq	r1, #1
	mov	r0, r1
	pop	{r11, pc}
.Lfunc_end75:
	.size	_ZN6Halide7Runtime8Internal10keys_equalEPKhS3_j, .Lfunc_end75-_ZN6Halide7Runtime8Internal10keys_equalEPKhS3_j
	.cantunwind
	.fnend

	.section	.text._ZN6Halide7Runtime8Internal12bounds_equalERK8buffer_tS4_,"ax",%progbits
	.weak	_ZN6Halide7Runtime8Internal12bounds_equalERK8buffer_tS4_
	.align	2
	.type	_ZN6Halide7Runtime8Internal12bounds_equalERK8buffer_tS4_,%function
_ZN6Halide7Runtime8Internal12bounds_equalERK8buffer_tS4_: @ @_ZN6Halide7Runtime8Internal12bounds_equalERK8buffer_tS4_
	.fnstart
@ BB#0:
	ldr	r2, [r1, #60]
	ldr	r3, [r0, #60]
	cmp	r3, r2
	bne	.LBB76_13
@ BB#1:                                 @ %.preheader.preheader
	ldr	r2, [r1, #44]
	ldr	r3, [r0, #44]
	cmp	r3, r2
	bne	.LBB76_13
@ BB#2:
	ldr	r2, [r1, #12]
	ldr	r3, [r0, #12]
	cmp	r3, r2
	bne	.LBB76_13
@ BB#3:
	ldr	r2, [r1, #28]
	ldr	r3, [r0, #28]
	cmp	r3, r2
	bne	.LBB76_13
@ BB#4:                                 @ %.preheader.13
	ldr	r2, [r1, #48]
	ldr	r3, [r0, #48]
	cmp	r3, r2
	bne	.LBB76_13
@ BB#5:
	ldr	r2, [r1, #16]
	ldr	r3, [r0, #16]
	cmp	r3, r2
	bne	.LBB76_13
@ BB#6:
	ldr	r2, [r1, #32]
	ldr	r3, [r0, #32]
	cmp	r3, r2
	bne	.LBB76_13
@ BB#7:                                 @ %.preheader.24
	ldr	r2, [r1, #52]
	ldr	r3, [r0, #52]
	cmp	r3, r2
	bne	.LBB76_13
@ BB#8:
	ldr	r2, [r1, #20]
	ldr	r3, [r0, #20]
	cmp	r3, r2
	bne	.LBB76_13
@ BB#9:
	ldr	r2, [r1, #36]
	ldr	r3, [r0, #36]
	cmp	r3, r2
	bne	.LBB76_13
@ BB#10:                                @ %.preheader.35
	ldr	r2, [r1, #56]
	ldr	r3, [r0, #56]
	cmp	r3, r2
	bne	.LBB76_13
@ BB#11:
	ldr	r2, [r1, #24]
	ldr	r3, [r0, #24]
	cmp	r3, r2
	bne	.LBB76_13
@ BB#12:
	ldr	r2, [r0, #40]
	mov	r0, #0
	ldr	r1, [r1, #40]
	cmp	r2, r1
	movweq	r0, #1
	bx	lr
.LBB76_13:                              @ %.thread
	mov	r0, #0
	bx	lr
.Lfunc_end76:
	.size	_ZN6Halide7Runtime8Internal12bounds_equalERK8buffer_tS4_, .Lfunc_end76-_ZN6Halide7Runtime8Internal12bounds_equalERK8buffer_tS4_
	.cantunwind
	.fnend

	.section	.text._ZN6Halide7Runtime8Internal10CacheEntry4initEPKhjjRK8buffer_tiPPS5_,"ax",%progbits
	.weak	_ZN6Halide7Runtime8Internal10CacheEntry4initEPKhjjRK8buffer_tiPPS5_
	.align	2
	.type	_ZN6Halide7Runtime8Internal10CacheEntry4initEPKhjjRK8buffer_tiPPS5_,%function
_ZN6Halide7Runtime8Internal10CacheEntry4initEPKhjjRK8buffer_tiPPS5_: @ @_ZN6Halide7Runtime8Internal10CacheEntry4initEPKhjjRK8buffer_tiPPS5_
	.fnstart
@ BB#0:
	.save	{r4, r5, r6, r7, r8, r10, r11, lr}
	push	{r4, r5, r6, r7, r8, r10, r11, lr}
	.setfp	r11, sp, #24
	add	r11, sp, #24
	mov	r4, r0
	ldr	r0, [r11, #12]
	mov	r7, #0
	mov	r5, r1
	str	r7, [r4]
	mov	r1, r2
	str	r7, [r4, #4]
	str	r7, [r4, #8]
	str	r2, [r4, #12]
	str	r3, [r4, #20]
	str	r7, [r4, #24]
	str	r0, [r4, #28]
	mov	r0, #0
	bl	halide_malloc(PLT)
	mov	r8, r0
	str	r8, [r4, #16]
	cmp	r8, #0
	beq	.LBB77_8
@ BB#1:
	ldr	r1, [r11, #8]
	add	r0, r4, #32
	mov	r2, #72
	bl	memcpy(PLT)
	mov	r6, #0
	str	r6, [r4, #32]
	str	r6, [r4, #36]
	str	r6, [r4, #40]
	ldr	r0, [r4, #12]
	cmp	r0, #0
	beq	.LBB77_5
@ BB#2:                                 @ %.lr.ph4.preheader
	ldrb	r0, [r5]
	strb	r0, [r8]
	ldr	r0, [r4, #12]
	cmp	r0, #1
	bls	.LBB77_5
@ BB#3:
	mov	r0, #1
.LBB77_4:                               @ %.lr.ph4..lr.ph4_crit_edge
                                        @ =>This Inner Loop Header: Depth=1
	ldrb	r1, [r5, r0]
	ldr	r2, [r4, #16]
	strb	r1, [r2, r0]
	add	r0, r0, #1
	ldr	r1, [r4, #12]
	cmp	r0, r1
	blo	.LBB77_4
.LBB77_5:                               @ %.preheader
	ldr	r0, [r4, #28]
	mov	r7, #1
	cmp	r0, #0
	beq	.LBB77_8
@ BB#6:
	ldr	r5, [r11, #16]
.LBB77_7:                               @ %.lr.ph
                                        @ =>This Inner Loop Header: Depth=1
	mov	r0, r4
	mov	r1, r6
	bl	_ZN6Halide7Runtime8Internal10CacheEntry6bufferEi(PLT)
	ldr	r1, [r5, r6, lsl #2]
	mov	r2, #72
	bl	memcpy(PLT)
	ldr	r0, [r4, #28]
	add	r6, r6, #1
	cmp	r6, r0
	blo	.LBB77_7
.LBB77_8:                               @ %.loopexit
	mov	r0, r7
	pop	{r4, r5, r6, r7, r8, r10, r11, pc}
.Lfunc_end77:
	.size	_ZN6Halide7Runtime8Internal10CacheEntry4initEPKhjjRK8buffer_tiPPS5_, .Lfunc_end77-_ZN6Halide7Runtime8Internal10CacheEntry4initEPKhjjRK8buffer_tiPPS5_
	.cantunwind
	.fnend

	.section	.text._ZN6Halide7Runtime8Internal8djb_hashEPKhj,"ax",%progbits
	.weak	_ZN6Halide7Runtime8Internal8djb_hashEPKhj
	.align	2
	.type	_ZN6Halide7Runtime8Internal8djb_hashEPKhj,%function
_ZN6Halide7Runtime8Internal8djb_hashEPKhj: @ @_ZN6Halide7Runtime8Internal8djb_hashEPKhj
	.fnstart
@ BB#0:
	mov	r2, r0
	movw	r0, #5381
	cmp	r1, #0
	bxeq	lr
.LBB78_1:                               @ %.lr.ph
                                        @ =>This Inner Loop Header: Depth=1
	add	r0, r0, r0, lsl #5
	ldrb	r3, [r2], #1
	subs	r1, r1, #1
	add	r0, r3, r0
	bne	.LBB78_1
@ BB#2:                                 @ %._crit_edge
	bx	lr
.Lfunc_end78:
	.size	_ZN6Halide7Runtime8Internal8djb_hashEPKhj, .Lfunc_end78-_ZN6Halide7Runtime8Internal8djb_hashEPKhj
	.cantunwind
	.fnend

	.section	.text._ZN6Halide7Runtime8Internal11prune_cacheEv,"ax",%progbits
	.weak	_ZN6Halide7Runtime8Internal11prune_cacheEv
	.align	2
	.type	_ZN6Halide7Runtime8Internal11prune_cacheEv,%function
_ZN6Halide7Runtime8Internal11prune_cacheEv: @ @_ZN6Halide7Runtime8Internal11prune_cacheEv
	.fnstart
@ BB#0:
	.save	{r4, r5, r6, r7, r8, r9, r10, r11, lr}
	push	{r4, r5, r6, r7, r8, r9, r10, r11, lr}
	.setfp	r11, sp, #28
	add	r11, sp, #28
	.pad	#20
	sub	sp, sp, #20
	ldr	r0, .LCPI79_2
.LPC79_2:
	ldr	r0, [pc, r0]
	ldr	r4, [r0]
	cmp	r4, #0
	beq	.LBB79_16
@ BB#1:
	ldr	r0, .LCPI79_0
	mov	r6, #0
	ldr	r1, .LCPI79_1
	mov	r7, #0
.LPC79_0:
	ldr	r0, [pc, r0]
.LPC79_1:
	ldr	r2, [pc, r1]
	ldrd	r0, r1, [r0]
	ldrd	r2, r3, [r2]
	cmp	r2, r0
	movwls	r6, #1
	cmp	r3, r1
	movwle	r7, #1
	moveq	r7, r6
	cmp	r7, #0
	bne	.LBB79_16
@ BB#2:
	ldr	r7, .LCPI79_3
	ldr	r5, .LCPI79_12
.LPC79_3:
	ldr	r7, [pc, r7]
.LPC79_12:
	ldr	r8, [pc, r5]
	str	r7, [sp, #16]           @ 4-byte Spill
	ldr	r7, .LCPI79_5
.LPC79_5:
	ldr	r7, [pc, r7]
	str	r7, [sp, #8]            @ 4-byte Spill
	ldr	r7, .LCPI79_6
.LPC79_6:
	ldr	r7, [pc, r7]
	str	r7, [sp, #12]           @ 4-byte Spill
	ldr	r7, .LCPI79_7
.LPC79_7:
	ldr	r7, [pc, r7]
	str	r7, [sp, #4]            @ 4-byte Spill
	ldr	r7, .LCPI79_8
.LPC79_8:
	ldr	r6, [pc, r7]
	ldr	r7, .LCPI79_9
.LPC79_9:
	ldr	r7, [pc, r7]
	str	r7, [sp]                @ 4-byte Spill
	ldr	r7, .LCPI79_11
.LPC79_11:
	ldr	r9, [pc, r7]
	ldr	r7, .LCPI79_10
.LPC79_10:
	ldr	r10, [pc, r7]
.LBB79_3:                               @ %.lr.ph9
                                        @ =>This Loop Header: Depth=1
                                        @     Child Loop BB79_5 Depth 2
                                        @     Child Loop BB79_12 Depth 2
	ldr	r7, [r4, #4]
	ldr	r5, [r4, #24]
	cmp	r5, #0
	bne	.LBB79_14
@ BB#4:                                 @   in Loop: Header=BB79_3 Depth=1
	ldrb	r0, [r4, #20]
	ldr	r1, [sp, #16]           @ 4-byte Reload
	ldr	r1, [r1, r0, lsl #2]
	cmp	r1, r4
	beq	.LBB79_8
.LBB79_5:                               @ %.preheader2
                                        @   Parent Loop BB79_3 Depth=1
                                        @ =>  This Inner Loop Header: Depth=2
	mov	r0, r1
	cmp	r0, #0
	beq	.LBB79_17
@ BB#6:                                 @   in Loop: Header=BB79_5 Depth=2
	ldr	r1, [r0]
	cmp	r1, r4
	bne	.LBB79_5
@ BB#7:                                 @ %.critedge
                                        @   in Loop: Header=BB79_3 Depth=1
	ldr	r1, [r4]
	str	r1, [r0]
	b	.LBB79_9
.LBB79_8:                               @   in Loop: Header=BB79_3 Depth=1
	ldr	r1, [r4]
	ldr	r2, [sp, #8]            @ 4-byte Reload
	str	r1, [r2, r0, lsl #2]
.LBB79_9:                               @   in Loop: Header=BB79_3 Depth=1
	ldr	r0, [sp, #12]           @ 4-byte Reload
	ldr	r0, [r0]
	cmp	r0, r4
	ldreq	r0, [sp, #4]            @ 4-byte Reload
	streq	r7, [r0]
	cmp	r7, #0
	ldrne	r0, [r4, #8]
	strne	r0, [r7, #8]
	ldr	r0, [r6]
	cmp	r0, r4
	bne	.LBB79_11
@ BB#10:                                @   in Loop: Header=BB79_3 Depth=1
	ldr	r0, [r4, #8]
	ldr	r1, [sp]                @ 4-byte Reload
	str	r0, [r1]
.LBB79_11:                              @ %._crit_edge14
                                        @   in Loop: Header=BB79_3 Depth=1
	ldr	r0, [r4, #8]
	mov	r5, #0
	cmp	r0, #0
	strne	r7, [r4, #8]
	ldr	r0, [r4, #28]
	cmp	r0, #0
	beq	.LBB79_13
.LBB79_12:                              @ %.lr.ph
                                        @   Parent Loop BB79_3 Depth=1
                                        @ =>  This Inner Loop Header: Depth=2
	mov	r0, r4
	mov	r1, r5
	bl	_ZN6Halide7Runtime8Internal10CacheEntry6bufferEi(PLT)
	bl	_ZN6Halide7Runtime8Internal8buf_sizeEPK8buffer_t(PLT)
	ldrd	r2, r3, [r10]
	add	r5, r5, #1
	subs	r0, r2, r0
	sbc	r1, r3, #0
	strd	r0, r1, [r10]
	ldr	r0, [r4, #28]
	cmp	r5, r0
	blo	.LBB79_12
.LBB79_13:                              @ %._crit_edge
                                        @   in Loop: Header=BB79_3 Depth=1
	mov	r0, r4
	bl	_ZN6Halide7Runtime8Internal10CacheEntry7destroyEv(PLT)
	mov	r0, #0
	mov	r1, r4
	bl	halide_free(PLT)
	ldrd	r0, r1, [r9]
	ldrd	r2, r3, [r8]
.LBB79_14:                              @ %.backedge
                                        @   in Loop: Header=BB79_3 Depth=1
	cmp	r7, #0
	beq	.LBB79_16
@ BB#15:                                @ %.backedge
                                        @   in Loop: Header=BB79_3 Depth=1
	cmp	r2, r0
	mov	r5, #0
	movwhi	r5, #1
	cmp	r3, r1
	mov	r4, #0
	movwgt	r4, #1
	moveq	r4, r5
	cmp	r4, #0
	mov	r4, r7
	bne	.LBB79_3
.LBB79_16:                              @ %._crit_edge10
	sub	sp, r11, #28
	pop	{r4, r5, r6, r7, r8, r9, r10, r11, pc}
.LBB79_17:                              @ %.critedge1
	ldr	r0, .LCPI79_4
.LPC79_4:
	add	r1, pc, r0
	mov	r0, #0
	bl	halide_print(PLT)
	bl	abort(PLT)
	.align	2
@ BB#18:
.LCPI79_0:
.Ltmp79:
	.long	_ZN6Halide7Runtime8Internal14max_cache_sizeE(GOT_PREL)-((.LPC79_0+8)-.Ltmp79)
.LCPI79_1:
.Ltmp80:
	.long	_ZN6Halide7Runtime8Internal18current_cache_sizeE(GOT_PREL)-((.LPC79_1+8)-.Ltmp80)
.LCPI79_2:
.Ltmp81:
	.long	_ZN6Halide7Runtime8Internal19least_recently_usedE(GOT_PREL)-((.LPC79_2+8)-.Ltmp81)
.LCPI79_3:
.Ltmp82:
	.long	_ZN6Halide7Runtime8Internal13cache_entriesE(GOT_PREL)-((.LPC79_3+8)-.Ltmp82)
.LCPI79_4:
	.long	.L.str.67-(.LPC79_4+8)
.LCPI79_5:
.Ltmp83:
	.long	_ZN6Halide7Runtime8Internal13cache_entriesE(GOT_PREL)-((.LPC79_5+8)-.Ltmp83)
.LCPI79_6:
.Ltmp84:
	.long	_ZN6Halide7Runtime8Internal19least_recently_usedE(GOT_PREL)-((.LPC79_6+8)-.Ltmp84)
.LCPI79_7:
.Ltmp85:
	.long	_ZN6Halide7Runtime8Internal19least_recently_usedE(GOT_PREL)-((.LPC79_7+8)-.Ltmp85)
.LCPI79_8:
.Ltmp86:
	.long	_ZN6Halide7Runtime8Internal18most_recently_usedE(GOT_PREL)-((.LPC79_8+8)-.Ltmp86)
.LCPI79_9:
.Ltmp87:
	.long	_ZN6Halide7Runtime8Internal18most_recently_usedE(GOT_PREL)-((.LPC79_9+8)-.Ltmp87)
.LCPI79_10:
.Ltmp88:
	.long	_ZN6Halide7Runtime8Internal18current_cache_sizeE(GOT_PREL)-((.LPC79_10+8)-.Ltmp88)
.LCPI79_11:
.Ltmp89:
	.long	_ZN6Halide7Runtime8Internal14max_cache_sizeE(GOT_PREL)-((.LPC79_11+8)-.Ltmp89)
.LCPI79_12:
.Ltmp90:
	.long	_ZN6Halide7Runtime8Internal18current_cache_sizeE(GOT_PREL)-((.LPC79_12+8)-.Ltmp90)
.Lfunc_end79:
	.size	_ZN6Halide7Runtime8Internal11prune_cacheEv, .Lfunc_end79-_ZN6Halide7Runtime8Internal11prune_cacheEv
	.cantunwind
	.fnend

	.section	.text.halide_memoization_cache_set_size,"ax",%progbits
	.weak	halide_memoization_cache_set_size
	.align	2
	.type	halide_memoization_cache_set_size,%function
halide_memoization_cache_set_size:      @ @halide_memoization_cache_set_size
	.fnstart
@ BB#0:
	.save	{r4, r5, r6, r7, r11, lr}
	push	{r4, r5, r6, r7, r11, lr}
	.setfp	r11, sp, #16
	add	r11, sp, #16
	mov	r6, r0
	ldr	r0, .LCPI80_0
	mov	r4, r1
.LPC80_1:
	ldr	r5, [pc, r0]
	mov	r0, r5
	bl	halide_mutex_lock(PLT)
	ldr	r0, .LCPI80_1
	orrs	r7, r6, r4
	movne	r7, r4
	moveq	r6, #1048576
.LPC80_0:
	ldr	r0, [pc, r0]
	strd	r6, r7, [r0]
	bl	_ZN6Halide7Runtime8Internal11prune_cacheEv(PLT)
	mov	r0, r5
	pop	{r4, r5, r6, r7, r11, lr}
	b	halide_mutex_unlock(PLT)
	.align	2
@ BB#1:
.LCPI80_0:
.Ltmp91:
	.long	_ZN6Halide7Runtime8Internal16memoization_lockE(GOT_PREL)-((.LPC80_1+8)-.Ltmp91)
.LCPI80_1:
.Ltmp92:
	.long	_ZN6Halide7Runtime8Internal14max_cache_sizeE(GOT_PREL)-((.LPC80_0+8)-.Ltmp92)
.Lfunc_end80:
	.size	halide_memoization_cache_set_size, .Lfunc_end80-halide_memoization_cache_set_size
	.cantunwind
	.fnend

	.section	.text.halide_memoization_cache_lookup,"ax",%progbits
	.weak	halide_memoization_cache_lookup
	.align	2
	.type	halide_memoization_cache_lookup,%function
halide_memoization_cache_lookup:        @ @halide_memoization_cache_lookup
	.fnstart
@ BB#0:
	.save	{r4, r5, r6, r7, r8, r9, r10, r11, lr}
	push	{r4, r5, r6, r7, r8, r9, r10, r11, lr}
	.setfp	r11, sp, #28
	add	r11, sp, #28
	.pad	#12
	sub	sp, sp, #12
	mov	r9, r2
	str	r0, [sp, #8]            @ 4-byte Spill
	str	r1, [sp, #4]            @ 4-byte Spill
	mov	r0, r1
	mov	r1, r9
	str	r3, [sp]                @ 4-byte Spill
	bl	_ZN6Halide7Runtime8Internal8djb_hashEPKhj(PLT)
	mov	r10, r0
	ldr	r0, .LCPI81_0
.LPC81_1:
	ldr	r0, [pc, r0]
	bl	halide_mutex_lock(PLT)
	ldr	r0, .LCPI81_1
	uxtb	r1, r10
	ldr	r7, [r11, #12]
	ldr	r6, [r11, #8]
.LPC81_0:
	ldr	r0, [pc, r0]
	ldr	r5, [r0, r1, lsl #2]
	cmp	r5, #0
	beq	.LBB81_17
@ BB#1:                                 @ %.lr.ph33
	cmp	r6, #1
	blt	.LBB81_11
.LBB81_2:                               @ %.lr.ph33.split.us
                                        @ =>This Loop Header: Depth=1
                                        @     Child Loop BB81_7 Depth 2
	ldr	r0, [r5, #20]
	cmp	r0, r10
	bne	.LBB81_10
@ BB#3:                                 @   in Loop: Header=BB81_2 Depth=1
	ldr	r0, [r5, #12]
	cmp	r0, r9
	bne	.LBB81_10
@ BB#4:                                 @   in Loop: Header=BB81_2 Depth=1
	ldr	r0, [r5, #16]
	mov	r2, r9
	ldr	r1, [sp, #4]            @ 4-byte Reload
	bl	_ZN6Halide7Runtime8Internal10keys_equalEPKhS3_j(PLT)
	cmp	r0, #1
	bne	.LBB81_10
@ BB#5:                                 @   in Loop: Header=BB81_2 Depth=1
	ldr	r1, [sp]                @ 4-byte Reload
	add	r0, r5, #32
	bl	_ZN6Halide7Runtime8Internal12bounds_equalERK8buffer_tS4_(PLT)
	cmp	r0, #1
	bne	.LBB81_10
@ BB#6:                                 @   in Loop: Header=BB81_2 Depth=1
	ldr	r0, [r5, #28]
	mov	r4, #0
	cmp	r0, r6
	bne	.LBB81_10
.LBB81_7:                               @ %.lr.ph29.us
                                        @   Parent Loop BB81_2 Depth=1
                                        @ =>  This Inner Loop Header: Depth=2
	mov	r0, r5
	mov	r1, r4
	ldr	r8, [r7, r4, lsl #2]
	bl	_ZN6Halide7Runtime8Internal10CacheEntry6bufferEi(PLT)
	mov	r1, r8
	bl	_ZN6Halide7Runtime8Internal12bounds_equalERK8buffer_tS4_(PLT)
	add	r4, r4, #1
	cmp	r4, r6
	bge	.LBB81_9
@ BB#8:                                 @ %.lr.ph29.us
                                        @   in Loop: Header=BB81_7 Depth=2
	cmp	r0, #0
	bne	.LBB81_7
.LBB81_9:                               @ %..critedge_crit_edge.us
                                        @   in Loop: Header=BB81_2 Depth=1
	cmp	r0, #0
	bne	.LBB81_25
.LBB81_10:                              @   in Loop: Header=BB81_2 Depth=1
	ldr	r5, [r5]
	cmp	r5, #0
	bne	.LBB81_2
	b	.LBB81_17
.LBB81_11:                              @ %.lr.ph33.split
                                        @ =>This Inner Loop Header: Depth=1
	ldr	r0, [r5, #20]
	cmp	r0, r10
	bne	.LBB81_16
@ BB#12:                                @   in Loop: Header=BB81_11 Depth=1
	ldr	r0, [r5, #12]
	cmp	r0, r9
	bne	.LBB81_16
@ BB#13:                                @   in Loop: Header=BB81_11 Depth=1
	ldr	r0, [r5, #16]
	mov	r2, r9
	ldr	r1, [sp, #4]            @ 4-byte Reload
	bl	_ZN6Halide7Runtime8Internal10keys_equalEPKhS3_j(PLT)
	cmp	r0, #1
	bne	.LBB81_16
@ BB#14:                                @   in Loop: Header=BB81_11 Depth=1
	ldr	r1, [sp]                @ 4-byte Reload
	add	r0, r5, #32
	bl	_ZN6Halide7Runtime8Internal12bounds_equalERK8buffer_tS4_(PLT)
	cmp	r0, #1
	bne	.LBB81_16
@ BB#15:                                @   in Loop: Header=BB81_11 Depth=1
	ldr	r0, [r5, #28]
	cmp	r0, r6
	beq	.LBB81_25
.LBB81_16:                              @   in Loop: Header=BB81_11 Depth=1
	ldr	r5, [r5]
	cmp	r5, #0
	bne	.LBB81_11
.LBB81_17:                              @ %.preheader15
	mov	r5, r7
	mov	r8, #1
	cmp	r6, #0
	ble	.LBB81_24
@ BB#18:
	mov	r7, #0
	mov	r9, #0
.LBB81_19:                              @ %.lr.ph24
                                        @ =>This Inner Loop Header: Depth=1
	ldr	r4, [r5, r7, lsl #2]
	mov	r0, r4
	bl	_ZN6Halide7Runtime8Internal8buf_sizeEPK8buffer_t(PLT)
	add	r1, r0, #16
	ldr	r0, [sp, #8]            @ 4-byte Reload
	bl	halide_malloc(PLT)
	str	r0, [r4, #8]
	cmp	r0, #0
	beq	.LBB81_21
@ BB#20:                                @   in Loop: Header=BB81_19 Depth=1
	add	r0, r0, #16
	str	r0, [r4, #8]
	bl	_ZN6Halide7Runtime8Internal21get_pointer_to_headerEPh(PLT)
	add	r7, r7, #1
	stm	r0, {r9, r10}
	cmp	r7, r6
	blt	.LBB81_19
	b	.LBB81_24
.LBB81_21:                              @ %.preheader
	mvn	r8, #0
	cmp	r7, #1
	blt	.LBB81_24
@ BB#22:                                @ %.lr.ph.preheader
	ldr	r6, [sp, #8]            @ 4-byte Reload
	sub	r4, r5, #4
	mov	r5, #0
.LBB81_23:                              @ %.lr.ph
                                        @ =>This Inner Loop Header: Depth=1
	ldr	r0, [r4, r7, lsl #2]
	ldr	r0, [r0, #8]
	bl	_ZN6Halide7Runtime8Internal21get_pointer_to_headerEPh(PLT)
	mov	r1, r0
	mov	r0, r6
	bl	halide_free(PLT)
	ldr	r0, [r4, r7, lsl #2]
	subs	r7, r7, #1
	str	r5, [r0, #8]
	bgt	.LBB81_23
.LBB81_24:                              @ %.loopexit
	ldr	r0, .LCPI81_10
.LPC81_10:
	ldr	r0, [pc, r0]
	bl	halide_mutex_unlock(PLT)
	mov	r0, r8
	sub	sp, r11, #28
	pop	{r4, r5, r6, r7, r8, r9, r10, r11, pc}
.LBB81_25:                              @ %.us-lcssa.us
	ldr	r0, .LCPI81_2
.LPC81_2:
	ldr	r0, [pc, r0]
	ldr	r0, [r0]
	cmp	r5, r0
	beq	.LBB81_36
@ BB#26:
	ldr	r0, [r5, #4]
	cmp	r0, #0
	bne	.LBB81_28
@ BB#27:
	ldr	r0, .LCPI81_3
.LPC81_3:
	add	r1, pc, r0
	ldr	r0, [sp, #8]            @ 4-byte Reload
	bl	halide_print(PLT)
	bl	abort(PLT)
.LBB81_28:
	ldr	r0, [r5, #8]
	cmp	r0, #0
	beq	.LBB81_30
@ BB#29:
	ldr	r1, [r5, #4]
	str	r1, [r0, #4]
	b	.LBB81_33
.LBB81_30:
	ldr	r0, .LCPI81_4
.LPC81_4:
	ldr	r0, [pc, r0]
	ldr	r0, [r0]
	cmp	r0, r5
	beq	.LBB81_32
@ BB#31:
	ldr	r0, .LCPI81_5
.LPC81_5:
	add	r1, pc, r0
	ldr	r0, [sp, #8]            @ 4-byte Reload
	bl	halide_print(PLT)
	bl	abort(PLT)
.LBB81_32:
	ldr	r0, .LCPI81_6
	ldr	r1, [r5, #4]
.LPC81_6:
	ldr	r0, [pc, r0]
	str	r1, [r0]
.LBB81_33:
	ldr	r0, [r5, #4]
	cmp	r0, #0
	bne	.LBB81_35
@ BB#34:
	ldr	r0, .LCPI81_7
.LPC81_7:
	add	r1, pc, r0
	ldr	r0, [sp, #8]            @ 4-byte Reload
	bl	halide_print(PLT)
	bl	abort(PLT)
	ldr	r0, [r5, #4]
.LBB81_35:
	ldr	r1, .LCPI81_8
	ldr	r2, [r5, #8]
.LPC81_8:
	ldr	r1, [pc, r1]
	str	r2, [r0, #8]
	mov	r0, #0
	str	r0, [r5, #4]
	ldr	r0, [r1]
	str	r0, [r5, #8]
	ldr	r0, [r1]
	cmp	r0, #0
	strne	r5, [r0, #4]
	ldr	r0, .LCPI81_9
.LPC81_9:
	ldr	r0, [pc, r0]
	str	r5, [r0]
.LBB81_36:                              @ %.preheader17
	cmp	r6, #0
	ble	.LBB81_39
@ BB#37:
	mov	r4, #0
.LBB81_38:                              @ %.lr.ph26
                                        @ =>This Inner Loop Header: Depth=1
	mov	r0, r5
	mov	r1, r4
	ldr	r8, [r7, r4, lsl #2]
	bl	_ZN6Halide7Runtime8Internal10CacheEntry6bufferEi(PLT)
	mov	r1, r0
	mov	r0, r8
	mov	r2, #72
	bl	memcpy(PLT)
	add	r4, r4, #1
	cmp	r6, r4
	bne	.LBB81_38
.LBB81_39:                              @ %.critedge12
	ldr	r0, [r5, #24]
	mov	r8, #0
	add	r0, r0, r6
	str	r0, [r5, #24]
	b	.LBB81_24
	.align	2
@ BB#40:
.LCPI81_0:
.Ltmp93:
	.long	_ZN6Halide7Runtime8Internal16memoization_lockE(GOT_PREL)-((.LPC81_1+8)-.Ltmp93)
.LCPI81_1:
.Ltmp94:
	.long	_ZN6Halide7Runtime8Internal13cache_entriesE(GOT_PREL)-((.LPC81_0+8)-.Ltmp94)
.LCPI81_2:
.Ltmp95:
	.long	_ZN6Halide7Runtime8Internal18most_recently_usedE(GOT_PREL)-((.LPC81_2+8)-.Ltmp95)
.LCPI81_3:
	.long	.L.str.1.68-(.LPC81_3+8)
.LCPI81_4:
.Ltmp96:
	.long	_ZN6Halide7Runtime8Internal19least_recently_usedE(GOT_PREL)-((.LPC81_4+8)-.Ltmp96)
.LCPI81_5:
	.long	.L.str.2.69-(.LPC81_5+8)
.LCPI81_6:
.Ltmp97:
	.long	_ZN6Halide7Runtime8Internal19least_recently_usedE(GOT_PREL)-((.LPC81_6+8)-.Ltmp97)
.LCPI81_7:
	.long	.L.str.3.70-(.LPC81_7+8)
.LCPI81_8:
.Ltmp98:
	.long	_ZN6Halide7Runtime8Internal18most_recently_usedE(GOT_PREL)-((.LPC81_8+8)-.Ltmp98)
.LCPI81_9:
.Ltmp99:
	.long	_ZN6Halide7Runtime8Internal18most_recently_usedE(GOT_PREL)-((.LPC81_9+8)-.Ltmp99)
.LCPI81_10:
.Ltmp100:
	.long	_ZN6Halide7Runtime8Internal16memoization_lockE(GOT_PREL)-((.LPC81_10+8)-.Ltmp100)
.Lfunc_end81:
	.size	halide_memoization_cache_lookup, .Lfunc_end81-halide_memoization_cache_lookup
	.cantunwind
	.fnend

	.section	.text.halide_memoization_cache_store,"ax",%progbits
	.weak	halide_memoization_cache_store
	.align	2
	.type	halide_memoization_cache_store,%function
halide_memoization_cache_store:         @ @halide_memoization_cache_store
	.fnstart
@ BB#0:
	.save	{r4, r5, r6, r7, r8, r9, r10, r11, lr}
	push	{r4, r5, r6, r7, r8, r9, r10, r11, lr}
	.setfp	r11, sp, #28
	add	r11, sp, #28
	.pad	#36
	sub	sp, sp, #36
	ldr	r5, [r11, #12]
	mov	r9, r3
	str	r0, [sp, #16]           @ 4-byte Spill
	mov	r6, r2
	mov	r8, r1
	ldr	r0, [r5]
	ldr	r0, [r0, #8]
	bl	_ZN6Halide7Runtime8Internal21get_pointer_to_headerEPh(PLT)
	ldr	r1, .LCPI82_0
	ldr	r4, [r0, #4]
.LPC82_1:
	ldr	r1, [pc, r1]
	str	r4, [sp, #32]           @ 4-byte Spill
	mov	r0, r1
	bl	halide_mutex_lock(PLT)
	ldr	r0, .LCPI82_1
	mov	r3, r4
	uxtb	r1, r3
	ldr	r10, [r11, #8]
.LPC82_0:
	ldr	r0, [pc, r0]
	str	r1, [sp, #12]           @ 4-byte Spill
	ldr	r7, [r0, r1, lsl #2]
	cmp	r7, #0
	beq	.LBB82_18
@ BB#1:                                 @ %.lr.ph36
	cmp	r10, #1
	blt	.LBB82_12
.LBB82_2:                               @ %.lr.ph36.split.us
                                        @ =>This Loop Header: Depth=1
                                        @     Child Loop BB82_8 Depth 2
	ldr	r0, [r7, #20]
	cmp	r0, r3
	bne	.LBB82_11
@ BB#3:                                 @   in Loop: Header=BB82_2 Depth=1
	ldr	r0, [r7, #12]
	cmp	r0, r6
	bne	.LBB82_11
@ BB#4:                                 @   in Loop: Header=BB82_2 Depth=1
	ldr	r0, [r7, #16]
	mov	r1, r8
	mov	r2, r6
	mov	r4, r3
	bl	_ZN6Halide7Runtime8Internal10keys_equalEPKhS3_j(PLT)
	mov	r3, r4
	cmp	r0, #1
	bne	.LBB82_11
@ BB#5:                                 @   in Loop: Header=BB82_2 Depth=1
	add	r0, r7, #32
	mov	r1, r9
	mov	r4, r3
	bl	_ZN6Halide7Runtime8Internal12bounds_equalERK8buffer_tS4_(PLT)
	mov	r3, r4
	cmp	r0, #1
	bne	.LBB82_11
@ BB#6:                                 @   in Loop: Header=BB82_2 Depth=1
	ldr	r0, [r7, #28]
	cmp	r0, r10
	bne	.LBB82_11
@ BB#7:                                 @   in Loop: Header=BB82_2 Depth=1
	str	r6, [sp, #28]           @ 4-byte Spill
	mov	r6, #0
	mov	r4, #1
	str	r9, [sp, #20]           @ 4-byte Spill
	str	r8, [sp, #24]           @ 4-byte Spill
.LBB82_8:                               @ %.lr.ph28.us
                                        @   Parent Loop BB82_2 Depth=1
                                        @ =>  This Inner Loop Header: Depth=2
	mov	r0, r7
	mov	r1, r6
	ldr	r9, [r5, r6, lsl #2]
	bl	_ZN6Halide7Runtime8Internal10CacheEntry6bufferEi(PLT)
	mov	r1, r9
	bl	_ZN6Halide7Runtime8Internal12bounds_equalERK8buffer_tS4_(PLT)
	mov	r8, r0
	mov	r0, r7
	mov	r1, r6
	bl	_ZN6Halide7Runtime8Internal10CacheEntry6bufferEi(PLT)
	ldr	r1, [r9, #8]
	add	r6, r6, #1
	ldr	r0, [r0, #8]
	cmp	r0, r1
	mov	r0, #0
	movwne	r0, #1
	cmp	r6, r10
	and	r4, r4, r0
	bge	.LBB82_10
@ BB#9:                                 @ %.lr.ph28.us
                                        @   in Loop: Header=BB82_8 Depth=2
	cmp	r8, #0
	bne	.LBB82_8
.LBB82_10:                              @ %..critedge_crit_edge.us
                                        @   in Loop: Header=BB82_2 Depth=1
	cmp	r8, #0
	ldr	r6, [sp, #28]           @ 4-byte Reload
	ldr	r8, [sp, #24]           @ 4-byte Reload
	ldr	r9, [sp, #20]           @ 4-byte Reload
	ldr	r3, [sp, #32]           @ 4-byte Reload
	bne	.LBB82_36
.LBB82_11:                              @   in Loop: Header=BB82_2 Depth=1
	ldr	r7, [r7]
	cmp	r7, #0
	bne	.LBB82_2
	b	.LBB82_18
.LBB82_12:                              @ %.lr.ph36.split
                                        @ =>This Inner Loop Header: Depth=1
	ldr	r0, [r7, #20]
	cmp	r0, r3
	bne	.LBB82_17
@ BB#13:                                @   in Loop: Header=BB82_12 Depth=1
	ldr	r0, [r7, #12]
	cmp	r0, r6
	bne	.LBB82_17
@ BB#14:                                @   in Loop: Header=BB82_12 Depth=1
	ldr	r0, [r7, #16]
	mov	r1, r8
	mov	r2, r6
	mov	r4, r3
	bl	_ZN6Halide7Runtime8Internal10keys_equalEPKhS3_j(PLT)
	mov	r3, r4
	cmp	r0, #1
	bne	.LBB82_17
@ BB#15:                                @   in Loop: Header=BB82_12 Depth=1
	add	r0, r7, #32
	mov	r1, r9
	mov	r4, r3
	bl	_ZN6Halide7Runtime8Internal12bounds_equalERK8buffer_tS4_(PLT)
	mov	r3, r4
	cmp	r0, #1
	bne	.LBB82_17
@ BB#16:                                @   in Loop: Header=BB82_12 Depth=1
	ldr	r0, [r7, #28]
	cmp	r0, r10
	beq	.LBB82_38
.LBB82_17:                              @   in Loop: Header=BB82_12 Depth=1
	ldr	r7, [r7]
	cmp	r7, #0
	bne	.LBB82_12
.LBB82_18:                              @ %.preheader
	str	r6, [sp, #28]           @ 4-byte Spill
	mov	r6, #0
	str	r9, [sp, #20]           @ 4-byte Spill
	cmp	r10, #0
	ble	.LBB82_21
@ BB#19:
	mov	r4, r5
	mov	r9, r5
	mov	r5, r10
	mov	r7, #0
	str	r3, [sp, #32]           @ 4-byte Spill
	str	r8, [sp, #24]           @ 4-byte Spill
.LBB82_20:                              @ %.lr.ph21
                                        @ =>This Inner Loop Header: Depth=1
	ldr	r0, [r4], #4
	bl	_ZN6Halide7Runtime8Internal8buf_sizeEPK8buffer_t(PLT)
	adds	r6, r0, r6
	adc	r7, r7, #0
	subs	r5, r5, #1
	bne	.LBB82_20
	b	.LBB82_22
.LBB82_21:
	str	r3, [sp, #32]           @ 4-byte Spill
	mov	r9, r5
	str	r8, [sp, #24]           @ 4-byte Spill
	mov	r7, #0
.LBB82_22:                              @ %._crit_edge22
	ldr	r0, .LCPI82_3
.LPC82_3:
	ldr	r0, [pc, r0]
	ldrd	r2, r3, [r0]
	adds	r2, r2, r6
	adc	r3, r3, r7
	strd	r2, r3, [r0]
	bl	_ZN6Halide7Runtime8Internal11prune_cacheEv(PLT)
	add	r0, r10, r10, lsl #3
	mov	r1, #104
	add	r1, r1, r0, lsl #3
	mov	r0, #0
	bl	halide_malloc(PLT)
	mov	r8, r0
	cmp	r8, #0
	beq	.LBB82_28
@ BB#23:
	ldr	r0, [sp, #20]           @ 4-byte Reload
	mov	r5, r9
	add	r3, sp, #24
	stm	sp, {r0, r10}
	mov	r0, r8
	str	r5, [sp, #8]
	ldm	r3, {r1, r2, r3}
	bl	_ZN6Halide7Runtime8Internal10CacheEntry4initEPKhjjRK8buffer_tiPPS5_(PLT)
	cmp	r0, #0
	beq	.LBB82_31
@ BB#24:
	ldr	r0, .LCPI82_5
	ldr	r2, [sp, #12]           @ 4-byte Reload
	ldr	r1, .LCPI82_6
.LPC82_6:
	ldr	r0, [pc, r0]
.LPC82_5:
	ldr	r1, [pc, r1]
	ldr	r0, [r0, r2, lsl #2]
	str	r0, [r8]
	ldr	r0, [r1]
	str	r0, [r8, #8]
	ldr	r0, [r1]
	ldr	r1, .LCPI82_8
	cmp	r0, #0
	strne	r8, [r0, #4]
	ldr	r0, .LCPI82_7
.LPC82_7:
	ldr	r1, [pc, r1]
.LPC82_8:
	ldr	r0, [pc, r0]
	str	r8, [r0]
	ldr	r0, [r1]
	cmp	r0, #0
	bne	.LBB82_26
@ BB#25:
	ldr	r0, .LCPI82_9
.LPC82_9:
	ldr	r0, [pc, r0]
	str	r8, [r0]
.LBB82_26:
	ldr	r0, .LCPI82_10
	cmp	r10, #1
.LPC82_10:
	ldr	r0, [pc, r0]
	str	r8, [r0, r2, lsl #2]
	str	r10, [r8, #24]
	blt	.LBB82_35
.LBB82_27:                              @ %.lr.ph16
                                        @ =>This Inner Loop Header: Depth=1
	ldr	r0, [r5], #4
	ldr	r0, [r0, #8]
	bl	_ZN6Halide7Runtime8Internal21get_pointer_to_headerEPh(PLT)
	subs	r10, r10, #1
	str	r8, [r0]
	bne	.LBB82_27
	b	.LBB82_35
.LBB82_28:
	ldr	r0, .LCPI82_11
.LPC82_11:
	ldr	r0, [pc, r0]
	ldrd	r2, r3, [r0]
	subs	r2, r2, r6
	sbc	r3, r3, r7
	cmp	r10, #1
	strd	r2, r3, [r0]
	blt	.LBB82_35
@ BB#29:
	mov	r4, #0
.LBB82_30:                              @ %.lr.ph
                                        @ =>This Inner Loop Header: Depth=1
	ldr	r0, [r9], #4
	ldr	r0, [r0, #8]
	bl	_ZN6Halide7Runtime8Internal21get_pointer_to_headerEPh(PLT)
	subs	r10, r10, #1
	str	r4, [r0]
	bne	.LBB82_30
	b	.LBB82_35
.LBB82_31:
	ldr	r0, .LCPI82_4
.LPC82_4:
	ldr	r0, [pc, r0]
	ldrd	r2, r3, [r0]
	subs	r2, r2, r6
	sbc	r3, r3, r7
	cmp	r10, #0
	strd	r2, r3, [r0]
	ble	.LBB82_34
@ BB#32:
	mov	r4, #0
.LBB82_33:                              @ %.lr.ph18
                                        @ =>This Inner Loop Header: Depth=1
	ldr	r0, [r5], #4
	ldr	r0, [r0, #8]
	bl	_ZN6Halide7Runtime8Internal21get_pointer_to_headerEPh(PLT)
	subs	r10, r10, #1
	str	r4, [r0]
	bne	.LBB82_33
.LBB82_34:                              @ %._crit_edge
	ldr	r0, [sp, #16]           @ 4-byte Reload
	mov	r1, r8
	bl	halide_free(PLT)
.LBB82_35:                              @ %.critedge9
	ldr	r0, .LCPI82_12
.LPC82_12:
	ldr	r0, [pc, r0]
	bl	halide_mutex_unlock(PLT)
	mov	r0, #0
	sub	sp, r11, #28
	pop	{r4, r5, r6, r7, r8, r9, r10, r11, pc}
.LBB82_36:                              @ %.us-lcssa.us
	cmp	r4, #0
	bne	.LBB82_38
@ BB#37:
	ldr	r0, .LCPI82_2
.LPC82_2:
	add	r1, pc, r0
	ldr	r0, [sp, #16]           @ 4-byte Reload
	bl	halide_print(PLT)
	bl	abort(PLT)
.LBB82_38:                              @ %.preheader11
	cmp	r10, #1
	blt	.LBB82_35
@ BB#39:
	mov	r4, #0
.LBB82_40:                              @ %.lr.ph24
                                        @ =>This Inner Loop Header: Depth=1
	ldr	r0, [r5], #4
	ldr	r0, [r0, #8]
	bl	_ZN6Halide7Runtime8Internal21get_pointer_to_headerEPh(PLT)
	subs	r10, r10, #1
	str	r4, [r0]
	bne	.LBB82_40
	b	.LBB82_35
	.align	2
@ BB#41:
.LCPI82_0:
.Ltmp101:
	.long	_ZN6Halide7Runtime8Internal16memoization_lockE(GOT_PREL)-((.LPC82_1+8)-.Ltmp101)
.LCPI82_1:
.Ltmp102:
	.long	_ZN6Halide7Runtime8Internal13cache_entriesE(GOT_PREL)-((.LPC82_0+8)-.Ltmp102)
.LCPI82_2:
	.long	.L.str.5.71-(.LPC82_2+8)
.LCPI82_3:
.Ltmp103:
	.long	_ZN6Halide7Runtime8Internal18current_cache_sizeE(GOT_PREL)-((.LPC82_3+8)-.Ltmp103)
.LCPI82_4:
.Ltmp104:
	.long	_ZN6Halide7Runtime8Internal18current_cache_sizeE(GOT_PREL)-((.LPC82_4+8)-.Ltmp104)
.LCPI82_5:
.Ltmp105:
	.long	_ZN6Halide7Runtime8Internal13cache_entriesE(GOT_PREL)-((.LPC82_6+8)-.Ltmp105)
.LCPI82_6:
.Ltmp106:
	.long	_ZN6Halide7Runtime8Internal18most_recently_usedE(GOT_PREL)-((.LPC82_5+8)-.Ltmp106)
.LCPI82_7:
.Ltmp107:
	.long	_ZN6Halide7Runtime8Internal18most_recently_usedE(GOT_PREL)-((.LPC82_8+8)-.Ltmp107)
.LCPI82_8:
.Ltmp108:
	.long	_ZN6Halide7Runtime8Internal19least_recently_usedE(GOT_PREL)-((.LPC82_7+8)-.Ltmp108)
.LCPI82_9:
.Ltmp109:
	.long	_ZN6Halide7Runtime8Internal19least_recently_usedE(GOT_PREL)-((.LPC82_9+8)-.Ltmp109)
.LCPI82_10:
.Ltmp110:
	.long	_ZN6Halide7Runtime8Internal13cache_entriesE(GOT_PREL)-((.LPC82_10+8)-.Ltmp110)
.LCPI82_11:
.Ltmp111:
	.long	_ZN6Halide7Runtime8Internal18current_cache_sizeE(GOT_PREL)-((.LPC82_11+8)-.Ltmp111)
.LCPI82_12:
.Ltmp112:
	.long	_ZN6Halide7Runtime8Internal16memoization_lockE(GOT_PREL)-((.LPC82_12+8)-.Ltmp112)
.Lfunc_end82:
	.size	halide_memoization_cache_store, .Lfunc_end82-halide_memoization_cache_store
	.cantunwind
	.fnend

	.section	.text.halide_memoization_cache_release,"ax",%progbits
	.weak	halide_memoization_cache_release
	.align	2
	.type	halide_memoization_cache_release,%function
halide_memoization_cache_release:       @ @halide_memoization_cache_release
	.fnstart
@ BB#0:
	.save	{r4, r5, r11, lr}
	push	{r4, r5, r11, lr}
	.setfp	r11, sp, #8
	add	r11, sp, #8
	mov	r4, r0
	mov	r0, r1
	bl	_ZN6Halide7Runtime8Internal21get_pointer_to_headerEPh(PLT)
	mov	r1, r0
	ldr	r5, [r1]
	cmp	r5, #0
	beq	.LBB83_4
@ BB#1:
	ldr	r0, .LCPI83_0
.LPC83_0:
	ldr	r0, [pc, r0]
	bl	halide_mutex_lock(PLT)
	ldr	r0, [r5, #24]
	cmp	r0, #0
	bne	.LBB83_3
@ BB#2:
	ldr	r0, .LCPI83_1
.LPC83_1:
	add	r1, pc, r0
	mov	r0, r4
	bl	halide_print(PLT)
	bl	abort(PLT)
	ldr	r0, [r5, #24]
.LBB83_3:
	ldr	r1, .LCPI83_2
	sub	r2, r0, #1
	str	r2, [r5, #24]
.LPC83_2:
	ldr	r0, [pc, r1]
	pop	{r4, r5, r11, lr}
	b	halide_mutex_unlock(PLT)
.LBB83_4:
	mov	r0, r4
	pop	{r4, r5, r11, lr}
	b	halide_free(PLT)
	.align	2
@ BB#5:
.LCPI83_0:
.Ltmp113:
	.long	_ZN6Halide7Runtime8Internal16memoization_lockE(GOT_PREL)-((.LPC83_0+8)-.Ltmp113)
.LCPI83_1:
	.long	.L.str.8.72-(.LPC83_1+8)
.LCPI83_2:
.Ltmp114:
	.long	_ZN6Halide7Runtime8Internal16memoization_lockE(GOT_PREL)-((.LPC83_2+8)-.Ltmp114)
.Lfunc_end83:
	.size	halide_memoization_cache_release, .Lfunc_end83-halide_memoization_cache_release
	.cantunwind
	.fnend

	.section	.text.halide_string_to_string,"ax",%progbits
	.weak	halide_string_to_string
	.align	2
	.type	halide_string_to_string,%function
halide_string_to_string:                @ @halide_string_to_string
	.fnstart
@ BB#0:
	cmp	r0, r1
	bhs	.LBB84_5
@ BB#1:                                 @ %.preheader
	beq	.LBB84_4
.LBB84_2:                               @ %.lr.ph
                                        @ =>This Inner Loop Header: Depth=1
	ldrb	r3, [r2]
	cmp	r3, #0
	strb	r3, [r0]
	bxeq	lr
	add	r0, r0, #1
	add	r2, r2, #1
	cmp	r1, r0
	bne	.LBB84_2
@ BB#3:
	mov	r0, r1
.LBB84_4:                               @ %._crit_edge
	mov	r1, #0
	strb	r1, [r0, #-1]
.LBB84_5:                               @ %.loopexit
	bx	lr
.Lfunc_end84:
	.size	halide_string_to_string, .Lfunc_end84-halide_string_to_string
	.cantunwind
	.fnend

	.section	.text.halide_uint64_to_string,"ax",%progbits
	.weak	halide_uint64_to_string
	.align	2
	.type	halide_uint64_to_string,%function
halide_uint64_to_string:                @ @halide_uint64_to_string
	.fnstart
@ BB#0:
	.save	{r4, r5, r6, r7, r8, r9, r10, r11, lr}
	push	{r4, r5, r6, r7, r8, r9, r10, r11, lr}
	.setfp	r11, sp, #28
	add	r11, sp, #28
	.pad	#36
	sub	sp, sp, #36
	ldr	r10, [r11, #8]
	mov	r9, r0
	mov	r0, #0
	mov	r6, r3
	mov	r7, r2
	mov	r8, r1
	add	r5, sp, #4
	mvn	r4, #29
	strb	r0, [sp, #35]
	orrs	r0, r7, r6
	bne	.LBB85_3
@ BB#1:
	cmp	r10, #0
	bgt	.LBB85_3
@ BB#2:
	add	r0, r5, #30
	b	.LBB85_6
.LBB85_3:                               @ %.lr.ph
                                        @ =>This Inner Loop Header: Depth=1
	mov	r0, r7
	mov	r1, r6
	mov	r2, #10
	mov	r3, #0
	bl	__aeabi_uldivmod(PLT)
	add	r2, r0, r0, lsl #2
	cmp	r7, #9
	sub	r2, r7, r2, lsl #1
	mov	r7, r0
	add	r2, r2, #48
	strb	r2, [r5, -r4]
	mov	r2, #0
	movwhi	r2, #1
	cmp	r6, #0
	movwne	r6, #1
	moveq	r6, r2
	add	r2, r4, #31
	cmp	r6, #0
	add	r4, r4, #1
	mov	r6, r1
	bne	.LBB85_3
@ BB#4:                                 @ %.lr.ph
                                        @   in Loop: Header=BB85_3 Depth=1
	mov	r7, r0
	mov	r6, r1
	cmp	r2, r10
	blt	.LBB85_3
@ BB#5:                                 @ %._crit_edge.loopexit
	sub	r0, r5, r4
.LBB85_6:                               @ %._crit_edge
	add	r2, r0, #1
	mov	r0, r9
	mov	r1, r8
	bl	halide_string_to_string(PLT)
	sub	sp, r11, #28
	pop	{r4, r5, r6, r7, r8, r9, r10, r11, pc}
.Lfunc_end85:
	.size	halide_uint64_to_string, .Lfunc_end85-halide_uint64_to_string
	.cantunwind
	.fnend

	.section	.text.halide_int64_to_string,"ax",%progbits
	.weak	halide_int64_to_string
	.align	2
	.type	halide_int64_to_string,%function
halide_int64_to_string:                 @ @halide_int64_to_string
	.fnstart
@ BB#0:
	cmp	r0, r1
	bhs	.LBB86_3
@ BB#1:
	cmp	r3, #0
	bge	.LBB86_3
@ BB#2:
	mov	r12, #45
	rsbs	r2, r2, #0
	strb	r12, [r0], #1
	rsc	r3, r3, #0
.LBB86_3:
	b	halide_uint64_to_string(PLT)
.Lfunc_end86:
	.size	halide_int64_to_string, .Lfunc_end86-halide_int64_to_string
	.cantunwind
	.fnend

	.section	.text.halide_double_to_string,"ax",%progbits
	.weak	halide_double_to_string
	.align	3
	.type	halide_double_to_string,%function
halide_double_to_string:                @ @halide_double_to_string
	.fnstart
@ BB#0:
	.save	{r4, r5, r6, r7, r8, r9, r10, r11, lr}
	push	{r4, r5, r6, r7, r8, r9, r10, r11, lr}
	.setfp	r11, sp, #28
	add	r11, sp, #28
	.pad	#4
	sub	sp, sp, #4
	.vsave	{d8}
	vpush	{d8}
	.pad	#552
	sub	sp, sp, #552
	vorr	d8, d0, d0
	mov	r10, r0
	mov	r0, #0
	mov	r6, r2
	mov	r8, r1
	str	r0, [r11, #-60]
	str	r0, [r11, #-64]
	sub	r0, r11, #64
	sub	r1, r11, #56
	mov	r2, #8
	vstr	d8, [r11, #-56]
	bl	memcpy(PLT)
	ldr	r1, [r11, #-60]
	ldr	r7, [r11, #-64]
	mov	r4, r1
	lsr	r0, r1, #31
	ubfx	r5, r1, #20, #11
	bfc	r4, #20, #12
	movw	r1, #2047
	cmp	r5, r1
	bne	.LBB87_4
@ BB#1:
	orrs	r1, r7, r4
	beq	.LBB87_8
@ BB#2:
	cmp	r0, #0
	beq	.LBB87_21
@ BB#3:
	ldr	r0, .LCPI87_11
.LPC87_10:
	add	r2, pc, r0
	b	.LBB87_34
.LBB87_4:
	orrs	r1, r7, r4
	cmpeq	r5, #0
	bne	.LBB87_10
@ BB#5:
	cmp	r6, #0
	beq	.LBB87_19
@ BB#6:
	cmp	r0, #0
	beq	.LBB87_22
@ BB#7:
	ldr	r0, .LCPI87_7
.LPC87_6:
	add	r2, pc, r0
	b	.LBB87_34
.LBB87_8:
	cmp	r0, #0
	beq	.LBB87_23
@ BB#9:
	ldr	r0, .LCPI87_13
.LPC87_12:
	add	r2, pc, r0
	b	.LBB87_34
.LBB87_10:
	cmp	r0, #0
	beq	.LBB87_12
@ BB#11:
	ldr	r0, .LCPI87_0
	mov	r1, r8
.LPC87_0:
	add	r2, pc, r0
	mov	r0, r10
	bl	halide_string_to_string(PLT)
	vneg.f64	d8, d8
	mov	r10, r0
	vstr	d8, [r11, #-56]
.LBB87_12:
	cmp	r6, #0
	beq	.LBB87_24
@ BB#13:                                @ %thread-pre-split
	vmov.f64	d16, #1.000000e+00
	mov	r6, #0
	vcmpe.f64	d8, d16
	vmrs	APSR_nzcv, fpscr
	bpl	.LBB87_17
@ BB#14:
	vmov.f64	d17, #1.000000e+01
.LBB87_15:                              @ %.lr.ph24
                                        @ =>This Inner Loop Header: Depth=1
	vmul.f64	d8, d8, d17
	sub	r6, r6, #1
	vcmpe.f64	d8, d16
	vmrs	APSR_nzcv, fpscr
	bmi	.LBB87_15
@ BB#16:                                @ %.thread-pre-split6_crit_edge
	vstr	d8, [r11, #-56]
.LBB87_17:                              @ %thread-pre-split6
	vmov.f64	d16, #1.000000e+01
	vcmpe.f64	d8, d16
	vmrs	APSR_nzcv, fpscr
	bge	.LBB87_28
@ BB#18:
	str	r10, [sp, #12]          @ 4-byte Spill
	mov	r5, r8
	b	.LBB87_31
.LBB87_19:
	cmp	r0, #0
	beq	.LBB87_33
@ BB#20:
	ldr	r0, .LCPI87_9
.LPC87_8:
	add	r2, pc, r0
	b	.LBB87_34
.LBB87_21:
	ldr	r0, .LCPI87_10
.LPC87_9:
	add	r2, pc, r0
	b	.LBB87_34
.LBB87_22:
	ldr	r0, .LCPI87_6
.LPC87_5:
	add	r2, pc, r0
	b	.LBB87_34
.LBB87_23:
	ldr	r0, .LCPI87_12
.LPC87_11:
	add	r2, pc, r0
	b	.LBB87_34
.LBB87_24:
	cmp	r5, #0
	beq	.LBB87_38
@ BB#25:
	movw	r0, #1075
	orr	r3, r4, #1048576
	sub	r1, r5, r0
	mov	r4, #0
	movw	r0, #1074
	cmp	r5, r0
	bhi	.LBB87_39
@ BB#26:
	mov	r9, #0
	cmn	r1, #52
	str	r1, [sp, #12]           @ 4-byte Spill
	bge	.LBB87_40
@ BB#27:
	mov	r6, #0
	mov	r5, #0
	b	.LBB87_41
.LBB87_28:
	mov	r5, r8
	str	r10, [sp, #12]          @ 4-byte Spill
.LBB87_29:                              @ %.lr.ph19
                                        @ =>This Inner Loop Header: Depth=1
	vdiv.f64	d8, d8, d16
	add	r6, r6, #1
	vcmpe.f64	d8, d16
	vmrs	APSR_nzcv, fpscr
	bge	.LBB87_29
@ BB#30:                                @ %._crit_edge20
	vstr	d8, [r11, #-56]
.LBB87_31:
	vldr	d16, .LCPI87_1
	vmov.f64	d17, #5.000000e-01
	vmla.f64	d17, d8, d16
	vmov	r0, r1, d17
	bl	__aeabi_d2ulz(PLT)
	movw	r2, #16960
	mov	r3, #0
	movt	r2, #15
	mov	r7, r0
	mov	r9, r1
	bl	__aeabi_uldivmod(PLT)
	mov	r2, r0
	movw	r0, #48576
	movt	r0, #65520
	mov	r4, r1
	umull	r10, r0, r2, r0
	mov	r1, #1
	str	r1, [sp]
	mov	r1, r5
	mov	r3, r4
	sub	r8, r0, r2
	ldr	r0, [sp, #12]           @ 4-byte Reload
	bl	halide_int64_to_string(PLT)
	ldr	r1, .LCPI87_2
.LPC87_1:
	add	r2, pc, r1
	movw	r1, #48576
	movt	r1, #65520
	mla	r4, r4, r1, r8
	mov	r1, r5
	bl	halide_string_to_string(PLT)
	mov	r1, #6
	adds	r2, r10, r7
	str	r1, [sp]
	adc	r3, r4, r9
	mov	r1, r5
	bl	halide_int64_to_string(PLT)
	cmp	r6, #0
	blt	.LBB87_36
@ BB#32:
	ldr	r1, .LCPI87_4
.LPC87_3:
	add	r2, pc, r1
	mov	r1, r5
	bl	halide_string_to_string(PLT)
	b	.LBB87_37
.LBB87_33:
	ldr	r0, .LCPI87_8
.LPC87_7:
	add	r2, pc, r0
.LBB87_34:
	mov	r0, r10
	mov	r1, r8
	bl	halide_string_to_string(PLT)
.LBB87_35:
	sub	sp, r11, #40
	vpop	{d8}
	add	sp, sp, #4
	pop	{r4, r5, r6, r7, r8, r9, r10, r11, pc}
.LBB87_36:
	ldr	r1, .LCPI87_3
.LPC87_2:
	add	r2, pc, r1
	mov	r1, r5
	bl	halide_string_to_string(PLT)
	rsb	r6, r6, #0
.LBB87_37:
	mov	r1, #2
	asr	r3, r6, #31
	str	r1, [sp]
	mov	r1, r5
	mov	r2, r6
	b	.LBB87_50
.LBB87_38:
	vmov.i32	d0, #0x0
	mov	r0, r10
	mov	r1, r8
	mov	r2, #0
	bl	halide_double_to_string(PLT)
	b	.LBB87_35
.LBB87_39:
	mov	r0, #0
	mov	r9, r1
	str	r0, [sp, #12]           @ 4-byte Spill
	mov	r0, #0
	str	r0, [sp, #8]            @ 4-byte Spill
	b	.LBB87_42
.LBB87_40:
	movw	r0, #1075
	sub	r0, r0, r5
	lsr	r1, r7, r0
	rsb	r2, r0, #32
	orr	r6, r1, r3, lsl r2
	movw	r1, #1043
	sub	r1, r1, r5
	cmp	r1, #0
	lsrge	r6, r3, r1
	lsr	r5, r3, r0
	lsr	r2, r6, r2
	orr	r2, r2, r5, lsl r0
	lslge	r2, r6, r1
	subs	r7, r7, r6, lsl r0
	sbc	r3, r3, r2
.LBB87_41:
	mov	r0, r7
	mov	r1, r3
	str	r5, [sp, #4]            @ 4-byte Spill
	mov	r7, r6
	bl	__aeabi_ul2d(PLT)
	ldr	r3, [sp, #12]           @ 4-byte Reload
	movw	r2, #33920
	movt	r2, #16686
	vmov	d16, r0, r1
	add	r2, r2, r3, lsl #20
	vmov	d17, r9, r2
	vmul.f64	d16, d17, d16
	vmov.f64	d17, #5.000000e-01
	vadd.f64	d8, d16, d17
	vmov	r0, r1, d8
	bl	__aeabi_d2ulz(PLT)
	mov	r5, r0
	mov	r6, r1
	bl	__aeabi_ul2d(PLT)
	vmov	d16, r0, r1
	subs	r2, r5, #1
	vcmpe.f64	d16, d8
	sbc	r1, r6, #0
	mov	r0, #0
	vmrs	APSR_nzcv, fpscr
	movweq	r0, #1
	ands	r0, r5, r0
	moveq	r2, r5
	moveq	r1, r6
	eor	r0, r2, #576
	ldr	r6, [sp, #4]            @ 4-byte Reload
	eor	r0, r0, #999424
	orrs	r0, r0, r1
	moveq	r1, r0
	str	r1, [sp, #8]            @ 4-byte Spill
	mov	r1, r7
	adds	r7, r1, #1
	adc	r3, r6, #0
	cmp	r0, #0
	moveq	r2, r0
	movne	r3, r6
	movne	r7, r1
	str	r2, [sp, #12]           @ 4-byte Spill
.LBB87_42:
	mov	r0, #1
	mov	r2, r7
	str	r0, [sp]
	add	r0, sp, #16
	add	r6, r0, #480
	add	r1, r0, #512
	mov	r0, r6
	bl	halide_int64_to_string(PLT)
	cmp	r9, #1
	blt	.LBB87_49
@ BB#43:
	mvn	r1, #95
	mov	r12, #49
.LBB87_44:                              @ %.preheader
                                        @ =>This Loop Header: Depth=1
                                        @     Child Loop BB87_46 Depth 2
	mov	r3, r6
	mov	r6, r0
	cmp	r0, r3
	beq	.LBB87_48
@ BB#45:                                @   in Loop: Header=BB87_44 Depth=1
	sub	r7, r3, #1
	mov	r6, r0
	mov	r5, #0
.LBB87_46:                              @ %.lr.ph
                                        @   Parent Loop BB87_44 Depth=1
                                        @ =>  This Inner Loop Header: Depth=2
	ldrb	r2, [r6, #-1]!
	add	r2, r1, r2, lsl #1
	orr	r5, r2, r5
	sxtb	r2, r5
	cmp	r2, #9
	subgt	r5, r5, #10
	add	r5, r5, #48
	strb	r5, [r6]
	mov	r5, #0
	movwgt	r5, #1
	cmp	r3, r6
	bne	.LBB87_46
@ BB#47:                                @ %._crit_edge
                                        @   in Loop: Header=BB87_44 Depth=1
	cmp	r2, #9
	mov	r6, r3
	movgt	r6, r7
	strbgt	r12, [r7]
.LBB87_48:                              @ %._crit_edge.thread
                                        @   in Loop: Header=BB87_44 Depth=1
	add	r4, r4, #1
	cmp	r4, r9
	bne	.LBB87_44
.LBB87_49:                              @ %._crit_edge16
	mov	r0, r10
	mov	r1, r8
	mov	r2, r6
	bl	halide_string_to_string(PLT)
	ldr	r1, .LCPI87_5
.LPC87_4:
	add	r2, pc, r1
	mov	r1, r8
	bl	halide_string_to_string(PLT)
	ldr	r2, [sp, #12]           @ 4-byte Reload
	mov	r1, #6
	ldr	r3, [sp, #8]            @ 4-byte Reload
	str	r1, [sp]
	mov	r1, r8
.LBB87_50:
	bl	halide_int64_to_string(PLT)
	b	.LBB87_35
	.align	3
@ BB#51:
.LCPI87_1:
	.long	0                       @ double 1.0E+6
	.long	1093567616
.LCPI87_0:
	.long	.L.str.8.89-(.LPC87_0+8)
.LCPI87_2:
	.long	.L.str.25.132-(.LPC87_1+8)
.LCPI87_3:
	.long	.L.str.11.92-(.LPC87_2+8)
.LCPI87_4:
	.long	.L.str.10.91-(.LPC87_3+8)
.LCPI87_5:
	.long	.L.str.25.132-(.LPC87_4+8)
.LCPI87_6:
	.long	.L.str.5.86-(.LPC87_5+8)
.LCPI87_7:
	.long	.L.str.4.85-(.LPC87_6+8)
.LCPI87_8:
	.long	.L.str.7.88-(.LPC87_7+8)
.LCPI87_9:
	.long	.L.str.6.87-(.LPC87_8+8)
.LCPI87_10:
	.long	.L.str.1.82-(.LPC87_9+8)
.LCPI87_11:
	.long	.L.str.81-(.LPC87_10+8)
.LCPI87_12:
	.long	.L.str.3.84-(.LPC87_11+8)
.LCPI87_13:
	.long	.L.str.2.83-(.LPC87_12+8)
.Lfunc_end87:
	.size	halide_double_to_string, .Lfunc_end87-halide_double_to_string
	.cantunwind
	.fnend

	.section	.text.halide_pointer_to_string,"ax",%progbits
	.weak	halide_pointer_to_string
	.align	2
	.type	halide_pointer_to_string,%function
halide_pointer_to_string:               @ @halide_pointer_to_string
	.fnstart
@ BB#0:
	.save	{r4, r5, r6, r10, r11, lr}
	push	{r4, r5, r6, r10, r11, lr}
	.setfp	r11, sp, #16
	add	r11, sp, #16
	.pad	#24
	sub	sp, sp, #24
	vmov.i32	q8, #0x0
	mov	r5, sp
	ldr	r4, .LCPI88_0
	add	r12, r5, #18
	mov	r3, #0
	mov	lr, #1
	vst1.64	{d16, d17}, [r5]!
.LPC88_0:
	add	r4, pc, r4
	str	r3, [r5]
.LBB88_1:                               @ =>This Inner Loop Header: Depth=1
	and	r6, r2, #15
	mov	r5, r12
	ldrb	r6, [r4, r6]
	cmp	lr, #15
	strb	r6, [r12], #-1
	bgt	.LBB88_3
@ BB#2:                                 @   in Loop: Header=BB88_1 Depth=1
	lsr	r2, r2, #4
	add	lr, lr, #1
	orr	r2, r2, r3, lsl #28
	lsr	r3, r3, #4
	orrs	r6, r2, r3
	bne	.LBB88_1
.LBB88_3:
	movw	r2, #30768
	strh	r2, [r12, #-1]
	sub	r2, r5, #2
	bl	halide_string_to_string(PLT)
	sub	sp, r11, #16
	pop	{r4, r5, r6, r10, r11, pc}
	.align	2
@ BB#4:
.LCPI88_0:
	.long	.L.str.12.95-(.LPC88_0+8)
.Lfunc_end88:
	.size	halide_pointer_to_string, .Lfunc_end88-halide_pointer_to_string
	.cantunwind
	.fnend

	.section	.text.halide_get_device_handle,"ax",%progbits
	.weak	halide_get_device_handle
	.align	2
	.type	halide_get_device_handle,%function
halide_get_device_handle:               @ @halide_get_device_handle
	.fnstart
@ BB#0:
	mov	r2, #0
	cmp	r0, #0
	mov	r3, #0
	ldrdne	r2, r3, [r0]
	mov	r0, r2
	mov	r1, r3
	bx	lr
.Lfunc_end89:
	.size	halide_get_device_handle, .Lfunc_end89-halide_get_device_handle
	.cantunwind
	.fnend

	.section	.text._ZN6Halide7Runtime8Internal27copy_to_host_already_lockedEPvP8buffer_t,"ax",%progbits
	.weak	_ZN6Halide7Runtime8Internal27copy_to_host_already_lockedEPvP8buffer_t
	.align	2
	.type	_ZN6Halide7Runtime8Internal27copy_to_host_already_lockedEPvP8buffer_t,%function
_ZN6Halide7Runtime8Internal27copy_to_host_already_lockedEPvP8buffer_t: @ @_ZN6Halide7Runtime8Internal27copy_to_host_already_lockedEPvP8buffer_t
	.fnstart
@ BB#0:
	.save	{r4, r5, r11, lr}
	push	{r4, r5, r11, lr}
	.setfp	r11, sp, #8
	add	r11, sp, #8
	mov	r4, r1
	mov	r5, r0
	ldrb	r1, [r4, #65]
	mov	r0, #0
	cmp	r1, #0
	beq	.LBB90_4
@ BB#1:
	ldrd	r0, r1, [r4]
	bl	halide_get_device_interface(PLT)
	ldrb	r2, [r4, #64]
	mov	r1, r0
	mvn	r0, #13
	cmp	r2, #0
	bne	.LBB90_4
@ BB#2:
	mvn	r0, #18
	cmp	r1, #0
	beq	.LBB90_4
@ BB#3:
	ldr	r2, [r1, #24]
	mov	r0, r5
	mov	r1, r4
	blx	r2
	cmp	r0, #0
	mvn	r0, #13
	popne	{r4, r5, r11, pc}
	mov	r0, #0
	strb	r0, [r4, #65]
.LBB90_4:
	pop	{r4, r5, r11, pc}
.Lfunc_end90:
	.size	_ZN6Halide7Runtime8Internal27copy_to_host_already_lockedEPvP8buffer_t, .Lfunc_end90-_ZN6Halide7Runtime8Internal27copy_to_host_already_lockedEPvP8buffer_t
	.cantunwind
	.fnend

	.section	.text.halide_get_device_interface,"ax",%progbits
	.weak	halide_get_device_interface
	.align	2
	.type	halide_get_device_interface,%function
halide_get_device_interface:            @ @halide_get_device_interface
	.fnstart
@ BB#0:
	orrs	r1, r0, r1
	mov	r1, #0
	ldrne	r1, [r0, #8]
	mov	r0, r1
	bx	lr
.Lfunc_end91:
	.size	halide_get_device_interface, .Lfunc_end91-halide_get_device_interface
	.cantunwind
	.fnend

	.section	.text.halide_new_device_wrapper,"ax",%progbits
	.weak	halide_new_device_wrapper
	.align	2
	.type	halide_new_device_wrapper,%function
halide_new_device_wrapper:              @ @halide_new_device_wrapper
	.fnstart
@ BB#0:
	.save	{r4, r5, r6, r7, r8, r10, r11, lr}
	push	{r4, r5, r6, r7, r8, r10, r11, lr}
	.setfp	r11, sp, #24
	add	r11, sp, #24
	mov	r7, r0
	mov	r0, #16
	mov	r6, r2
	mov	r8, r1
	bl	malloc(PLT)
	mov	r5, r0
	mov	r4, #0
	cmp	r5, #0
	beq	.LBB92_2
@ BB#1:
	stm	r5, {r7, r8}
	str	r6, [r5, #8]
	ldr	r0, [r6]
	blx	r0
	b	.LBB92_3
.LBB92_2:
	mov	r5, #0
.LBB92_3:
	mov	r0, r5
	mov	r1, r4
	pop	{r4, r5, r6, r7, r8, r10, r11, pc}
.Lfunc_end92:
	.size	halide_new_device_wrapper, .Lfunc_end92-halide_new_device_wrapper
	.cantunwind
	.fnend

	.section	.text.halide_delete_device_wrapper,"ax",%progbits
	.weak	halide_delete_device_wrapper
	.align	2
	.type	halide_delete_device_wrapper,%function
halide_delete_device_wrapper:           @ @halide_delete_device_wrapper
	.fnstart
@ BB#0:
	.save	{r4, r10, r11, lr}
	push	{r4, r10, r11, lr}
	.setfp	r11, sp, #8
	add	r11, sp, #8
	mov	r4, r0
	ldr	r0, [r4, #8]
	ldr	r0, [r0, #4]
	blx	r0
	mov	r0, r4
	pop	{r4, r10, r11, lr}
	b	free(PLT)
.Lfunc_end93:
	.size	halide_delete_device_wrapper, .Lfunc_end93-halide_delete_device_wrapper
	.cantunwind
	.fnend

	.section	.text.halide_device_release,"ax",%progbits
	.weak	halide_device_release
	.align	2
	.type	halide_device_release,%function
halide_device_release:                  @ @halide_device_release
	.fnstart
@ BB#0:
	ldr	r1, [r1, #20]
	bx	r1
.Lfunc_end94:
	.size	halide_device_release, .Lfunc_end94-halide_device_release
	.cantunwind
	.fnend

	.section	.text.halide_copy_to_host,"ax",%progbits
	.weak	halide_copy_to_host
	.align	2
	.type	halide_copy_to_host,%function
halide_copy_to_host:                    @ @halide_copy_to_host
	.fnstart
@ BB#0:
	.save	{r4, r5, r6, r10, r11, lr}
	push	{r4, r5, r6, r10, r11, lr}
	.setfp	r11, sp, #16
	add	r11, sp, #16
	mov	r5, r0
	ldr	r0, .LCPI95_0
	mov	r4, r1
.LPC95_0:
	ldr	r6, [pc, r0]
	mov	r0, r6
	bl	halide_mutex_lock(PLT)
	mov	r0, r5
	mov	r1, r4
	bl	_ZN6Halide7Runtime8Internal27copy_to_host_already_lockedEPvP8buffer_t(PLT)
	mov	r4, r0
	mov	r0, r6
	bl	halide_mutex_unlock(PLT)
	mov	r0, r4
	pop	{r4, r5, r6, r10, r11, pc}
	.align	2
@ BB#1:
.LCPI95_0:
.Ltmp115:
	.long	_ZN6Halide7Runtime8Internal17device_copy_mutexE(GOT_PREL)-((.LPC95_0+8)-.Ltmp115)
.Lfunc_end95:
	.size	halide_copy_to_host, .Lfunc_end95-halide_copy_to_host
	.cantunwind
	.fnend

	.section	.text.halide_copy_to_device,"ax",%progbits
	.weak	halide_copy_to_device
	.align	2
	.type	halide_copy_to_device,%function
halide_copy_to_device:                  @ @halide_copy_to_device
	.fnstart
@ BB#0:
	.save	{r4, r5, r6, r7, r11, lr}
	push	{r4, r5, r6, r7, r11, lr}
	.setfp	r11, sp, #16
	add	r11, sp, #16
	mov	r5, r0
	ldr	r0, .LCPI96_0
	mov	r6, r2
	mov	r4, r1
.LPC96_0:
	ldr	r0, [pc, r0]
	bl	halide_mutex_lock(PLT)
	ldrd	r0, r1, [r4]
	bl	halide_get_device_interface(PLT)
	cmp	r6, #0
	bne	.LBB96_2
@ BB#1:
	mvn	r7, #18
	mov	r6, r0
	cmp	r0, #0
	beq	.LBB96_16
.LBB96_2:
	ldrd	r2, r3, [r4]
	cmp	r0, r6
	orrsne	r1, r2, r3
	beq	.LBB96_10
@ BB#3:
	cmp	r0, #0
	beq	.LBB96_8
@ BB#4:
	ldrb	r0, [r4, #65]
	cmp	r0, #0
	beq	.LBB96_8
@ BB#5:
	ldrb	r0, [r4, #64]
	cmp	r0, #0
	beq	.LBB96_7
@ BB#6:
	ldr	r0, .LCPI96_1
.LPC96_1:
	add	r1, pc, r0
	mov	r0, r5
	bl	halide_print(PLT)
	bl	abort(PLT)
.LBB96_7:
	mov	r0, r5
	mov	r1, r4
	bl	_ZN6Halide7Runtime8Internal27copy_to_host_already_lockedEPvP8buffer_t(PLT)
	mov	r7, r0
	cmp	r7, #0
	bne	.LBB96_16
.LBB96_8:
	mov	r0, r5
	mov	r1, r4
	bl	halide_device_free(PLT)
	mov	r7, r0
	cmp	r7, #0
	bne	.LBB96_16
@ BB#9:
	mov	r0, #1
	strb	r0, [r4, #64]
	ldrd	r2, r3, [r4]
.LBB96_10:
	orrs	r0, r2, r3
	bne	.LBB96_12
@ BB#11:
	mov	r0, r5
	mov	r1, r4
	mov	r2, r6
	bl	halide_device_malloc(PLT)
	mov	r7, r0
	cmp	r7, #0
	bne	.LBB96_16
.LBB96_12:
	ldrh	r0, [r4, #64]
	mov	r7, #0
	tst	r0, #255
	beq	.LBB96_16
@ BB#13:
	cmp	r0, #255
	bhi	.LBB96_16
@ BB#14:
	ldr	r2, [r6, #28]
	mov	r0, r5
	mov	r1, r4
	blx	r2
	mvn	r7, #14
	cmp	r0, #0
	bne	.LBB96_16
@ BB#15:
	mov	r7, #0
	strb	r7, [r4, #64]
.LBB96_16:
	ldr	r0, .LCPI96_2
.LPC96_2:
	ldr	r0, [pc, r0]
	bl	halide_mutex_unlock(PLT)
	mov	r0, r7
	pop	{r4, r5, r6, r7, r11, pc}
	.align	2
@ BB#17:
.LCPI96_0:
.Ltmp116:
	.long	_ZN6Halide7Runtime8Internal17device_copy_mutexE(GOT_PREL)-((.LPC96_0+8)-.Ltmp116)
.LCPI96_1:
	.long	.L.str.22.100-(.LPC96_1+8)
.LCPI96_2:
.Ltmp117:
	.long	_ZN6Halide7Runtime8Internal17device_copy_mutexE(GOT_PREL)-((.LPC96_2+8)-.Ltmp117)
.Lfunc_end96:
	.size	halide_copy_to_device, .Lfunc_end96-halide_copy_to_device
	.cantunwind
	.fnend

	.section	.text.halide_device_free,"ax",%progbits
	.weak	halide_device_free
	.align	2
	.type	halide_device_free,%function
halide_device_free:                     @ @halide_device_free
	.fnstart
@ BB#0:
	.save	{r4, r5, r6, r7, r11, lr}
	push	{r4, r5, r6, r7, r11, lr}
	.setfp	r11, sp, #16
	add	r11, sp, #16
	mov	r4, r1
	mov	r5, r0
	cmp	r4, #0
	beq	.LBB97_5
@ BB#1:
	ldrd	r6, r7, [r4]
	mov	r0, r6
	mov	r1, r7
	bl	halide_get_device_interface(PLT)
	mov	r0, r6
	mov	r1, r7
	bl	halide_get_device_interface(PLT)
	mov	r7, r0
	cmp	r7, #0
	beq	.LBB97_6
@ BB#2:
	ldr	r0, [r7]
	blx	r0
	ldr	r2, [r7, #12]
	mov	r0, r5
	mov	r1, r4
	blx	r2
	mov	r6, r0
	ldr	r0, [r7, #4]
	blx	r0
	ldrd	r0, r1, [r4]
	orrs	r0, r0, r1
	beq	.LBB97_4
@ BB#3:
	ldr	r0, .LCPI97_0
.LPC97_0:
	add	r1, pc, r0
	mov	r0, r5
	bl	halide_print(PLT)
	bl	abort(PLT)
.LBB97_4:
	cmp	r6, #0
	mvnne	r6, #17
	mov	r0, r6
	pop	{r4, r5, r6, r7, r11, pc}
.LBB97_5:
	mov	r0, #0
	mov	r1, #0
	bl	halide_get_device_interface(PLT)
.LBB97_6:                               @ %.thread
	mov	r6, #0
	mov	r0, r6
	strb	r6, [r4, #65]
	pop	{r4, r5, r6, r7, r11, pc}
	.align	2
@ BB#7:
.LCPI97_0:
	.long	.L.str.37.103-(.LPC97_0+8)
.Lfunc_end97:
	.size	halide_device_free, .Lfunc_end97-halide_device_free
	.cantunwind
	.fnend

	.section	.text.halide_device_malloc,"ax",%progbits
	.weak	halide_device_malloc
	.align	2
	.type	halide_device_malloc,%function
halide_device_malloc:                   @ @halide_device_malloc
	.fnstart
@ BB#0:
	.save	{r4, r5, r6, r10, r11, lr}
	push	{r4, r5, r6, r10, r11, lr}
	.setfp	r11, sp, #16
	add	r11, sp, #16
	mov	r6, r1
	mov	r4, r0
	ldrd	r0, r1, [r6]
	mov	r5, r2
	bl	halide_get_device_interface(PLT)
	cmp	r0, #0
	cmpne	r0, r5
	beq	.LBB98_3
@ BB#1:
	mov	r0, r4
	mov	r1, #1024
	bl	halide_malloc(PLT)
	mov	r5, r0
	cmp	r5, #0
	beq	.LBB98_4
@ BB#2:
	mov	r2, #0
	mov	r1, r5
	ldr	r0, .LCPI98_0
	strb	r2, [r1, #1023]!
.LPC98_0:
	add	r2, pc, r0
	mov	r0, r5
	bl	halide_string_to_string(PLT)
	mov	r0, r4
	mov	r1, r5
	b	.LBB98_5
.LBB98_3:
	ldr	r0, [r5]
	blx	r0
	ldr	r2, [r5, #8]
	mov	r0, r4
	mov	r1, r6
	blx	r2
	mov	r4, r0
	ldr	r0, [r5, #4]
	blx	r0
	cmp	r4, #0
	mvnne	r4, #15
	mov	r0, r4
	pop	{r4, r5, r6, r10, r11, pc}
.LBB98_4:
	ldr	r0, .LCPI98_1
	mov	r1, #0
.LPC98_2:
	add	r2, pc, r0
	mov	r0, #0
	bl	halide_string_to_string(PLT)
	ldr	r0, .LCPI98_2
.LPC98_1:
	add	r1, pc, r0
	mov	r0, r4
.LBB98_5:                               @ %_ZN6Halide7Runtime8Internal12_GLOBAL__N_17PrinterILi1ELy1024EED2Ev.exit
	bl	halide_error(PLT)
	mov	r0, r4
	mov	r1, r5
	bl	halide_free(PLT)
	mvn	r4, #15
	mov	r0, r4
	pop	{r4, r5, r6, r10, r11, pc}
	.align	2
@ BB#6:
.LCPI98_0:
	.long	.L.str.34.104-(.LPC98_0+8)
.LCPI98_1:
	.long	.L.str.34.104-(.LPC98_2+8)
.LCPI98_2:
	.long	.L.str.18.147-(.LPC98_1+8)
.Lfunc_end98:
	.size	halide_device_malloc, .Lfunc_end98-halide_device_malloc
	.cantunwind
	.fnend

	.section	.text.halide_device_sync,"ax",%progbits
	.weak	halide_device_sync
	.align	2
	.type	halide_device_sync,%function
halide_device_sync:                     @ @halide_device_sync
	.fnstart
@ BB#0:
	.save	{r4, r5, r6, r10, r11, lr}
	push	{r4, r5, r6, r10, r11, lr}
	.setfp	r11, sp, #16
	add	r11, sp, #16
	mov	r5, r1
	mov	r6, r0
	mvn	r4, #18
	cmp	r5, #0
	beq	.LBB99_3
@ BB#1:
	ldrd	r0, r1, [r5]
	bl	halide_get_device_interface(PLT)
	cmp	r0, #0
	beq	.LBB99_3
@ BB#2:
	ldr	r2, [r0, #16]
	mov	r0, r6
	mov	r1, r5
	blx	r2
	mov	r4, r0
	cmp	r4, #0
	mvnne	r4, #16
.LBB99_3:                               @ %.thread
	mov	r0, r4
	pop	{r4, r5, r6, r10, r11, pc}
.Lfunc_end99:
	.size	halide_device_sync, .Lfunc_end99-halide_device_sync
	.cantunwind
	.fnend

	.section	.text.halide_device_free_as_destructor,"ax",%progbits
	.weak	halide_device_free_as_destructor
	.align	2
	.type	halide_device_free_as_destructor,%function
halide_device_free_as_destructor:       @ @halide_device_free_as_destructor
	.fnstart
@ BB#0:
	b	halide_device_free(PLT)
.Lfunc_end100:
	.size	halide_device_free_as_destructor, .Lfunc_end100-halide_device_free_as_destructor
	.cantunwind
	.fnend

	.section	.text.halide_device_and_host_malloc,"ax",%progbits
	.weak	halide_device_and_host_malloc
	.align	2
	.type	halide_device_and_host_malloc,%function
halide_device_and_host_malloc:          @ @halide_device_and_host_malloc
	.fnstart
@ BB#0:
	.save	{r4, r5, r6, r10, r11, lr}
	push	{r4, r5, r6, r10, r11, lr}
	.setfp	r11, sp, #16
	add	r11, sp, #16
	mov	r6, r1
	mov	r4, r0
	ldrd	r0, r1, [r6]
	mov	r5, r2
	bl	halide_get_device_interface(PLT)
	cmp	r0, #0
	cmpne	r0, r5
	beq	.LBB101_3
@ BB#1:
	mov	r0, r4
	mov	r1, #1024
	bl	halide_malloc(PLT)
	mov	r5, r0
	cmp	r5, #0
	beq	.LBB101_4
@ BB#2:
	mov	r2, #0
	mov	r1, r5
	ldr	r0, .LCPI101_0
	strb	r2, [r1, #1023]!
.LPC101_0:
	add	r2, pc, r0
	mov	r0, r5
	bl	halide_string_to_string(PLT)
	mov	r0, r4
	mov	r1, r5
	b	.LBB101_5
.LBB101_3:
	ldr	r0, [r5]
	blx	r0
	ldr	r2, [r5, #32]
	mov	r0, r4
	mov	r1, r6
	blx	r2
	mov	r4, r0
	ldr	r0, [r5, #4]
	blx	r0
	cmp	r4, #0
	mvnne	r4, #15
	mov	r0, r4
	pop	{r4, r5, r6, r10, r11, pc}
.LBB101_4:
	ldr	r0, .LCPI101_1
	mov	r1, #0
.LPC101_2:
	add	r2, pc, r0
	mov	r0, #0
	bl	halide_string_to_string(PLT)
	ldr	r0, .LCPI101_2
.LPC101_1:
	add	r1, pc, r0
	mov	r0, r4
.LBB101_5:                              @ %_ZN6Halide7Runtime8Internal12_GLOBAL__N_17PrinterILi1ELy1024EED2Ev.exit
	bl	halide_error(PLT)
	mov	r0, r4
	mov	r1, r5
	bl	halide_free(PLT)
	mvn	r4, #15
	mov	r0, r4
	pop	{r4, r5, r6, r10, r11, pc}
	.align	2
@ BB#6:
.LCPI101_0:
	.long	.L.str.39-(.LPC101_0+8)
.LCPI101_1:
	.long	.L.str.39-(.LPC101_2+8)
.LCPI101_2:
	.long	.L.str.18.147-(.LPC101_1+8)
.Lfunc_end101:
	.size	halide_device_and_host_malloc, .Lfunc_end101-halide_device_and_host_malloc
	.cantunwind
	.fnend

	.section	.text.halide_device_and_host_free,"ax",%progbits
	.weak	halide_device_and_host_free
	.align	2
	.type	halide_device_and_host_free,%function
halide_device_and_host_free:            @ @halide_device_and_host_free
	.fnstart
@ BB#0:
	.save	{r4, r5, r6, r7, r11, lr}
	push	{r4, r5, r6, r7, r11, lr}
	.setfp	r11, sp, #16
	add	r11, sp, #16
	mov	r4, r1
	mov	r5, r0
	cmp	r4, #0
	beq	.LBB102_5
@ BB#1:
	ldrd	r6, r7, [r4]
	mov	r0, r6
	mov	r1, r7
	bl	halide_get_device_interface(PLT)
	mov	r0, r6
	mov	r1, r7
	bl	halide_get_device_interface(PLT)
	mov	r7, r0
	cmp	r7, #0
	beq	.LBB102_6
@ BB#2:
	ldr	r0, [r7]
	blx	r0
	ldr	r2, [r7, #36]
	mov	r0, r5
	mov	r1, r4
	blx	r2
	mov	r6, r0
	ldr	r0, [r7, #4]
	blx	r0
	ldrd	r0, r1, [r4]
	orrs	r0, r0, r1
	beq	.LBB102_4
@ BB#3:
	ldr	r0, .LCPI102_0
.LPC102_0:
	add	r1, pc, r0
	mov	r0, r5
	bl	halide_print(PLT)
	bl	abort(PLT)
.LBB102_4:
	cmp	r6, #0
	mvnne	r6, #17
	mov	r0, r6
	pop	{r4, r5, r6, r7, r11, pc}
.LBB102_5:
	mov	r0, #0
	mov	r1, #0
	bl	halide_get_device_interface(PLT)
.LBB102_6:                              @ %.thread
	mov	r6, #0
	mov	r0, r6
	strb	r6, [r4, #65]
	pop	{r4, r5, r6, r7, r11, pc}
	.align	2
@ BB#7:
.LCPI102_0:
	.long	.L.str.41-(.LPC102_0+8)
.Lfunc_end102:
	.size	halide_device_and_host_free, .Lfunc_end102-halide_device_and_host_free
	.cantunwind
	.fnend

	.section	.text.halide_default_device_and_host_malloc,"ax",%progbits
	.weak	halide_default_device_and_host_malloc
	.align	2
	.type	halide_default_device_and_host_malloc,%function
halide_default_device_and_host_malloc:  @ @halide_default_device_and_host_malloc
	.fnstart
@ BB#0:
	.save	{r4, r5, r6, r10, r11, lr}
	push	{r4, r5, r6, r10, r11, lr}
	.setfp	r11, sp, #16
	add	r11, sp, #16
	mov	r4, r1
	mov	r5, r0
	mov	r0, r4
	mov	r6, r2
	bl	_ZN6Halide7Runtime8Internal8buf_sizeEPK8buffer_t(PLT)
	mov	r1, r0
	mov	r0, r5
	bl	halide_malloc(PLT)
	mov	r1, r0
	mvn	r0, #0
	str	r1, [r4, #8]
	cmp	r1, #0
	beq	.LBB103_3
@ BB#1:
	mov	r0, r5
	mov	r1, r4
	mov	r2, r6
	bl	halide_device_malloc(PLT)
	mov	r6, r0
	mov	r0, #0
	cmp	r6, #0
	beq	.LBB103_3
@ BB#2:
	ldr	r1, [r4, #8]
	mov	r0, r5
	bl	halide_free(PLT)
	mov	r0, #0
	str	r0, [r4, #8]
	mov	r0, r6
.LBB103_3:
	pop	{r4, r5, r6, r10, r11, pc}
.Lfunc_end103:
	.size	halide_default_device_and_host_malloc, .Lfunc_end103-halide_default_device_and_host_malloc
	.cantunwind
	.fnend

	.section	.text.halide_default_device_and_host_free,"ax",%progbits
	.weak	halide_default_device_and_host_free
	.align	2
	.type	halide_default_device_and_host_free,%function
halide_default_device_and_host_free:    @ @halide_default_device_and_host_free
	.fnstart
@ BB#0:
	.save	{r4, r5, r6, r10, r11, lr}
	push	{r4, r5, r6, r10, r11, lr}
	.setfp	r11, sp, #16
	add	r11, sp, #16
	mov	r4, r1
	mov	r5, r0
	bl	halide_device_free(PLT)
	ldr	r1, [r4, #8]
	mov	r6, r0
	mov	r0, r5
	bl	halide_free(PLT)
	mov	r0, #0
	str	r0, [r4, #8]
	strh	r0, [r4, #64]
	mov	r0, r6
	pop	{r4, r5, r6, r10, r11, pc}
.Lfunc_end104:
	.size	halide_default_device_and_host_free, .Lfunc_end104-halide_default_device_and_host_free
	.cantunwind
	.fnend

	.section	.text.halide_device_and_host_free_as_destructor,"ax",%progbits
	.weak	halide_device_and_host_free_as_destructor
	.align	2
	.type	halide_device_and_host_free_as_destructor,%function
halide_device_and_host_free_as_destructor: @ @halide_device_and_host_free_as_destructor
	.fnstart
@ BB#0:
	b	halide_device_and_host_free(PLT)
.Lfunc_end105:
	.size	halide_device_and_host_free_as_destructor, .Lfunc_end105-halide_device_and_host_free_as_destructor
	.cantunwind
	.fnend

	.section	.text.halide_device_host_nop_free,"ax",%progbits
	.weak	halide_device_host_nop_free
	.align	2
	.type	halide_device_host_nop_free,%function
halide_device_host_nop_free:            @ @halide_device_host_nop_free
	.fnstart
@ BB#0:
	bx	lr
.Lfunc_end106:
	.size	halide_device_host_nop_free, .Lfunc_end106-halide_device_host_nop_free
	.cantunwind
	.fnend

	.section	.text.halide_runtime_internal_register_metadata,"ax",%progbits
	.weak	halide_runtime_internal_register_metadata
	.align	2
	.type	halide_runtime_internal_register_metadata,%function
halide_runtime_internal_register_metadata: @ @halide_runtime_internal_register_metadata
	.fnstart
@ BB#0:
	.save	{r4, r5, r11, lr}
	push	{r4, r5, r11, lr}
	.setfp	r11, sp, #8
	add	r11, sp, #8
	mov	r4, r0
	ldr	r0, .LCPI107_0
.LPC107_0:
	ldr	r5, [pc, r0]
	mov	r0, r5
	bl	halide_mutex_lock(PLT)
	ldr	r0, [r5, #64]
	str	r0, [r4]
	mov	r0, r5
	str	r4, [r5, #64]
	pop	{r4, r5, r11, lr}
	b	halide_mutex_unlock(PLT)
	.align	2
@ BB#1:
.LCPI107_0:
.Ltmp118:
	.long	_ZN6Halide7Runtime8Internal9list_headE(GOT_PREL)-((.LPC107_0+8)-.Ltmp118)
.Lfunc_end107:
	.size	halide_runtime_internal_register_metadata, .Lfunc_end107-halide_runtime_internal_register_metadata
	.cantunwind
	.fnend

	.section	.text.halide_enumerate_registered_filters,"ax",%progbits
	.weak	halide_enumerate_registered_filters
	.align	2
	.type	halide_enumerate_registered_filters,%function
halide_enumerate_registered_filters:    @ @halide_enumerate_registered_filters
	.fnstart
@ BB#0:
	.save	{r4, r5, r6, r7, r11, lr}
	push	{r4, r5, r6, r7, r11, lr}
	.setfp	r11, sp, #16
	add	r11, sp, #16
	ldr	r0, .LCPI108_0
	mov	r4, r2
	mov	r5, r1
.LPC108_0:
	ldr	r6, [pc, r0]
	mov	r0, r6
	bl	halide_mutex_lock(PLT)
	ldr	r7, [r6, #64]
	b	.LBB108_2
.LBB108_1:                              @   in Loop: Header=BB108_2 Depth=1
	ldr	r7, [r7]
.LBB108_2:                              @ =>This Inner Loop Header: Depth=1
	cmp	r7, #0
	beq	.LBB108_4
@ BB#3:                                 @ %.lr.ph
                                        @   in Loop: Header=BB108_2 Depth=1
	ldr	r0, [r7, #4]
	blx	r0
	ldr	r2, [r7, #8]
	mov	r1, r0
	mov	r0, r5
	blx	r4
	mov	r6, r0
	cmp	r6, #0
	beq	.LBB108_1
	b	.LBB108_5
.LBB108_4:
	mov	r6, #0
.LBB108_5:                              @ %._crit_edge
	ldr	r0, .LCPI108_1
.LPC108_1:
	ldr	r0, [pc, r0]
	bl	halide_mutex_unlock(PLT)
	mov	r0, r6
	pop	{r4, r5, r6, r7, r11, pc}
	.align	2
@ BB#6:
.LCPI108_0:
.Ltmp119:
	.long	_ZN6Halide7Runtime8Internal9list_headE(GOT_PREL)-((.LPC108_0+8)-.Ltmp119)
.LCPI108_1:
.Ltmp120:
	.long	_ZN6Halide7Runtime8Internal9list_headE(GOT_PREL)-((.LPC108_1+8)-.Ltmp120)
.Lfunc_end108:
	.size	halide_enumerate_registered_filters, .Lfunc_end108-halide_enumerate_registered_filters
	.cantunwind
	.fnend

	.section	.text.halide_float16_bits_to_float,"ax",%progbits
	.weak	halide_float16_bits_to_float
	.align	2
	.type	halide_float16_bits_to_float,%function
halide_float16_bits_to_float:           @ @halide_float16_bits_to_float
	.fnstart
@ BB#0:
	mov	r1, #-2147483648
	ubfx	r2, r0, #10, #5
	and	r1, r1, r0, lsl #16
	bfc	r0, #10, #22
	cmp	r0, #0
	beq	.LBB109_3
@ BB#1:
	cmp	r2, #0
	bne	.LBB109_3
@ BB#2:
	clz	r2, r0
	mov	r3, #864026624
	eor	r2, r2, #31
	mov	r12, #1
	add	r3, r3, r2, lsl #23
	bic	r0, r0, r12, lsl r2
	orr	r1, r3, r1
	rsb	r2, r2, #23
	orr	r0, r1, r0, lsl r2
	vmov	s0, r0
	bx	lr
.LBB109_3:
	lsl	r0, r0, #13
	mov	r3, #0
	cmp	r2, #0
	beq	.LBB109_7
@ BB#4:
	cmp	r2, #31
	bne	.LBB109_6
@ BB#5:
	movw	r3, #0
	movt	r3, #32640
	b	.LBB109_7
.LBB109_6:
	mov	r3, #939524096
	add	r3, r3, r2, lsl #23
.LBB109_7:
	orr	r0, r0, r1
	orr	r0, r0, r3
	vmov	s0, r0
	bx	lr
.Lfunc_end109:
	.size	halide_float16_bits_to_float, .Lfunc_end109-halide_float16_bits_to_float
	.cantunwind
	.fnend

	.section	.text.halide_float16_bits_to_double,"ax",%progbits
	.weak	halide_float16_bits_to_double
	.align	2
	.type	halide_float16_bits_to_double,%function
halide_float16_bits_to_double:          @ @halide_float16_bits_to_double
	.fnstart
@ BB#0:
	.save	{r11, lr}
	push	{r11, lr}
	.setfp	r11, sp
	mov	r11, sp
	bl	halide_float16_bits_to_float(PLT)
	vcvt.f64.f32	d0, s0
	pop	{r11, pc}
.Lfunc_end110:
	.size	halide_float16_bits_to_double, .Lfunc_end110-halide_float16_bits_to_double
	.cantunwind
	.fnend

	.section	.text.halide_error_bounds_inference_call_failed,"ax",%progbits
	.weak	halide_error_bounds_inference_call_failed
	.align	2
	.type	halide_error_bounds_inference_call_failed,%function
halide_error_bounds_inference_call_failed: @ @halide_error_bounds_inference_call_failed
	.fnstart
@ BB#0:
	.save	{r4, r5, r6, r7, r8, r10, r11, lr}
	push	{r4, r5, r6, r7, r8, r10, r11, lr}
	.setfp	r11, sp, #24
	add	r11, sp, #24
	.pad	#8
	sub	sp, sp, #8
	mov	r8, r1
	mov	r1, #1024
	mov	r4, r2
	mov	r5, r0
	bl	halide_malloc(PLT)
	mov	r6, r0
	cmp	r6, #0
	beq	.LBB111_2
@ BB#1:                                 @ %_ZN6Halide7Runtime8Internal12_GLOBAL__N_17PrinterILi1ELy1024EEC2EPvPc.exit
	mov	r1, #0
	mov	r7, r6
	strb	r1, [r7, #1023]!
	ldr	r0, .LCPI111_0
	mov	r1, r7
.LPC111_1:
	add	r2, pc, r0
	mov	r0, r6
	bl	halide_string_to_string(PLT)
	mov	r1, r7
	mov	r2, r8
	bl	halide_string_to_string(PLT)
	ldr	r1, .LCPI111_1
.LPC111_0:
	add	r2, pc, r1
	mov	r1, r7
	bl	halide_string_to_string(PLT)
	mov	r1, #1
	asr	r3, r4, #31
	str	r1, [sp]
	mov	r1, r7
	mov	r2, r4
	bl	halide_int64_to_string(PLT)
	mov	r0, r5
	mov	r1, r6
	b	.LBB111_3
.LBB111_2:                              @ %.critedge
	ldr	r0, .LCPI111_2
	mov	r1, #0
.LPC111_4:
	add	r2, pc, r0
	mov	r0, #0
	bl	halide_string_to_string(PLT)
	mov	r1, #0
	mov	r2, r8
	bl	halide_string_to_string(PLT)
	ldr	r1, .LCPI111_3
.LPC111_3:
	add	r2, pc, r1
	mov	r1, #0
	bl	halide_string_to_string(PLT)
	mov	r1, #1
	asr	r3, r4, #31
	str	r1, [sp]
	mov	r1, #0
	mov	r2, r4
	bl	halide_int64_to_string(PLT)
	ldr	r0, .LCPI111_4
.LPC111_2:
	add	r1, pc, r0
	mov	r0, r5
.LBB111_3:                              @ %_ZN6Halide7Runtime8Internal12_GLOBAL__N_17PrinterILi1ELy1024EED2Ev.exit
	bl	halide_error(PLT)
	mov	r0, r5
	mov	r1, r6
	bl	halide_free(PLT)
	mov	r0, r4
	sub	sp, r11, #24
	pop	{r4, r5, r6, r7, r8, r10, r11, pc}
	.align	2
@ BB#4:
.LCPI111_0:
	.long	.L.str.107-(.LPC111_1+8)
.LCPI111_1:
	.long	.L.str.1.108-(.LPC111_0+8)
.LCPI111_2:
	.long	.L.str.107-(.LPC111_4+8)
.LCPI111_3:
	.long	.L.str.1.108-(.LPC111_3+8)
.LCPI111_4:
	.long	.L.str.18.147-(.LPC111_2+8)
.Lfunc_end111:
	.size	halide_error_bounds_inference_call_failed, .Lfunc_end111-halide_error_bounds_inference_call_failed
	.cantunwind
	.fnend

	.section	.text.halide_error_extern_stage_failed,"ax",%progbits
	.weak	halide_error_extern_stage_failed
	.align	2
	.type	halide_error_extern_stage_failed,%function
halide_error_extern_stage_failed:       @ @halide_error_extern_stage_failed
	.fnstart
@ BB#0:
	.save	{r4, r5, r6, r7, r8, r10, r11, lr}
	push	{r4, r5, r6, r7, r8, r10, r11, lr}
	.setfp	r11, sp, #24
	add	r11, sp, #24
	.pad	#8
	sub	sp, sp, #8
	mov	r8, r1
	mov	r1, #1024
	mov	r4, r2
	mov	r5, r0
	bl	halide_malloc(PLT)
	mov	r6, r0
	cmp	r6, #0
	beq	.LBB112_2
@ BB#1:                                 @ %_ZN6Halide7Runtime8Internal12_GLOBAL__N_17PrinterILi1ELy1024EEC2EPvPc.exit
	mov	r1, #0
	mov	r7, r6
	strb	r1, [r7, #1023]!
	ldr	r0, .LCPI112_0
	mov	r1, r7
.LPC112_1:
	add	r2, pc, r0
	mov	r0, r6
	bl	halide_string_to_string(PLT)
	mov	r1, r7
	mov	r2, r8
	bl	halide_string_to_string(PLT)
	ldr	r1, .LCPI112_1
.LPC112_0:
	add	r2, pc, r1
	mov	r1, r7
	bl	halide_string_to_string(PLT)
	mov	r1, #1
	asr	r3, r4, #31
	str	r1, [sp]
	mov	r1, r7
	mov	r2, r4
	bl	halide_int64_to_string(PLT)
	mov	r0, r5
	mov	r1, r6
	b	.LBB112_3
.LBB112_2:                              @ %.critedge
	ldr	r0, .LCPI112_2
	mov	r1, #0
.LPC112_4:
	add	r2, pc, r0
	mov	r0, #0
	bl	halide_string_to_string(PLT)
	mov	r1, #0
	mov	r2, r8
	bl	halide_string_to_string(PLT)
	ldr	r1, .LCPI112_3
.LPC112_3:
	add	r2, pc, r1
	mov	r1, #0
	bl	halide_string_to_string(PLT)
	mov	r1, #1
	asr	r3, r4, #31
	str	r1, [sp]
	mov	r1, #0
	mov	r2, r4
	bl	halide_int64_to_string(PLT)
	ldr	r0, .LCPI112_4
.LPC112_2:
	add	r1, pc, r0
	mov	r0, r5
.LBB112_3:                              @ %_ZN6Halide7Runtime8Internal12_GLOBAL__N_17PrinterILi1ELy1024EED2Ev.exit
	bl	halide_error(PLT)
	mov	r0, r5
	mov	r1, r6
	bl	halide_free(PLT)
	mov	r0, r4
	sub	sp, r11, #24
	pop	{r4, r5, r6, r7, r8, r10, r11, pc}
	.align	2
@ BB#4:
.LCPI112_0:
	.long	.L.str.2.109-(.LPC112_1+8)
.LCPI112_1:
	.long	.L.str.1.108-(.LPC112_0+8)
.LCPI112_2:
	.long	.L.str.2.109-(.LPC112_4+8)
.LCPI112_3:
	.long	.L.str.1.108-(.LPC112_3+8)
.LCPI112_4:
	.long	.L.str.18.147-(.LPC112_2+8)
.Lfunc_end112:
	.size	halide_error_extern_stage_failed, .Lfunc_end112-halide_error_extern_stage_failed
	.cantunwind
	.fnend

	.section	.text.halide_error_explicit_bounds_too_small,"ax",%progbits
	.weak	halide_error_explicit_bounds_too_small
	.align	2
	.type	halide_error_explicit_bounds_too_small,%function
halide_error_explicit_bounds_too_small: @ @halide_error_explicit_bounds_too_small
	.fnstart
@ BB#0:
	.save	{r4, r5, r6, r7, r8, r9, r10, r11, lr}
	push	{r4, r5, r6, r7, r8, r9, r10, r11, lr}
	.setfp	r11, sp, #28
	add	r11, sp, #28
	.pad	#4
	sub	sp, sp, #4
	mov	r8, r1
	mov	r1, #1024
	mov	r7, r3
	mov	r9, r2
	mov	r10, r0
	bl	halide_malloc(PLT)
	mov	r5, r0
	mov	r6, #0
	cmp	r5, #0
	movne	r0, #0
	movne	r6, r5
	strbne	r0, [r6, #1023]!
	ldr	r0, .LCPI113_0
	mov	r1, r6
.LPC113_5:
	add	r2, pc, r0
	mov	r0, r5
	bl	halide_string_to_string(PLT)
	mov	r1, r6
	mov	r2, r9
	bl	halide_string_to_string(PLT)
	ldr	r1, .LCPI113_1
.LPC113_4:
	add	r2, pc, r1
	mov	r1, r6
	bl	halide_string_to_string(PLT)
	mov	r1, r6
	mov	r2, r8
	bl	halide_string_to_string(PLT)
	ldr	r1, .LCPI113_2
.LPC113_3:
	add	r2, pc, r1
	mov	r1, r6
	bl	halide_string_to_string(PLT)
	asr	r3, r7, #31
	mov	r4, #1
	mov	r1, r6
	str	r4, [sp]
	mov	r2, r7
	bl	halide_int64_to_string(PLT)
	ldr	r1, .LCPI113_3
.LPC113_2:
	add	r7, pc, r1
	mov	r1, r6
	mov	r2, r7
	bl	halide_string_to_string(PLT)
	ldr	r2, [r11, #8]
	mov	r1, r6
	str	r4, [sp]
	asr	r3, r2, #31
	bl	halide_int64_to_string(PLT)
	ldr	r1, .LCPI113_4
.LPC113_1:
	add	r2, pc, r1
	mov	r1, r6
	bl	halide_string_to_string(PLT)
	ldr	r2, [r11, #12]
	mov	r1, r6
	str	r4, [sp]
	asr	r3, r2, #31
	bl	halide_int64_to_string(PLT)
	mov	r1, r6
	mov	r2, r7
	bl	halide_string_to_string(PLT)
	ldr	r2, [r11, #16]
	mov	r1, r6
	str	r4, [sp]
	asr	r3, r2, #31
	bl	halide_int64_to_string(PLT)
	ldr	r1, .LCPI113_5
.LPC113_0:
	add	r2, pc, r1
	mov	r1, r6
	bl	halide_string_to_string(PLT)
	cmp	r5, #0
	beq	.LBB113_2
@ BB#1:
	mov	r0, r10
	mov	r1, r5
	b	.LBB113_3
.LBB113_2:
	ldr	r0, .LCPI113_6
.LPC113_6:
	add	r1, pc, r0
	mov	r0, r10
.LBB113_3:                              @ %_ZN6Halide7Runtime8Internal12_GLOBAL__N_17PrinterILi1ELy1024EED2Ev.exit
	bl	halide_error(PLT)
	mov	r0, r10
	mov	r1, r5
	bl	halide_free(PLT)
	mvn	r0, #1
	sub	sp, r11, #28
	pop	{r4, r5, r6, r7, r8, r9, r10, r11, pc}
	.align	2
@ BB#4:
.LCPI113_0:
	.long	.L.str.3.110-(.LPC113_5+8)
.LCPI113_1:
	.long	.L.str.4.111-(.LPC113_4+8)
.LCPI113_2:
	.long	.L.str.5.112-(.LPC113_3+8)
.LCPI113_3:
	.long	.L.str.6.113-(.LPC113_2+8)
.LCPI113_4:
	.long	.L.str.7.114-(.LPC113_1+8)
.LCPI113_5:
	.long	.L.str.8.115-(.LPC113_0+8)
.LCPI113_6:
	.long	.L.str.18.147-(.LPC113_6+8)
.Lfunc_end113:
	.size	halide_error_explicit_bounds_too_small, .Lfunc_end113-halide_error_explicit_bounds_too_small
	.cantunwind
	.fnend

	.section	.text.halide_error_bad_elem_size,"ax",%progbits
	.weak	halide_error_bad_elem_size
	.align	2
	.type	halide_error_bad_elem_size,%function
halide_error_bad_elem_size:             @ @halide_error_bad_elem_size
	.fnstart
@ BB#0:
	.save	{r4, r5, r6, r7, r8, r9, r10, r11, lr}
	push	{r4, r5, r6, r7, r8, r9, r10, r11, lr}
	.setfp	r11, sp, #28
	add	r11, sp, #28
	.pad	#4
	sub	sp, sp, #4
	mov	r4, r1
	mov	r1, #1024
	mov	r7, r3
	mov	r10, r2
	mov	r9, r0
	bl	halide_malloc(PLT)
	ldr	r8, [r11, #8]
	mov	r5, r0
	mov	r0, #0
	cmp	r5, #0
	beq	.LBB114_2
@ BB#1:                                 @ %_ZN6Halide7Runtime8Internal12_GLOBAL__N_17PrinterILi1ELy1024EEC2EPvPc.exit
	mov	r6, r5
	mov	r2, r4
	strb	r0, [r6, #1023]!
	mov	r0, r5
	mov	r1, r6
	bl	halide_string_to_string(PLT)
	ldr	r1, .LCPI114_0
.LPC114_2:
	add	r2, pc, r1
	mov	r1, r6
	bl	halide_string_to_string(PLT)
	mov	r1, r6
	mov	r2, r10
	bl	halide_string_to_string(PLT)
	ldr	r1, .LCPI114_1
.LPC114_1:
	add	r2, pc, r1
	mov	r1, r6
	bl	halide_string_to_string(PLT)
	asr	r3, r7, #31
	mov	r4, #1
	mov	r1, r6
	str	r4, [sp]
	mov	r2, r7
	bl	halide_int64_to_string(PLT)
	ldr	r1, .LCPI114_2
.LPC114_0:
	add	r2, pc, r1
	mov	r1, r6
	bl	halide_string_to_string(PLT)
	asr	r3, r8, #31
	mov	r1, r6
	mov	r2, r8
	str	r4, [sp]
	bl	halide_int64_to_string(PLT)
	mov	r0, r9
	mov	r1, r5
	b	.LBB114_3
.LBB114_2:                              @ %.critedge
	mov	r1, #0
	mov	r2, r4
	bl	halide_string_to_string(PLT)
	ldr	r1, .LCPI114_3
.LPC114_6:
	add	r2, pc, r1
	mov	r1, #0
	bl	halide_string_to_string(PLT)
	mov	r1, #0
	mov	r2, r10
	bl	halide_string_to_string(PLT)
	ldr	r1, .LCPI114_4
.LPC114_5:
	add	r2, pc, r1
	mov	r1, #0
	bl	halide_string_to_string(PLT)
	asr	r3, r7, #31
	mov	r4, #1
	mov	r1, #0
	str	r4, [sp]
	mov	r2, r7
	bl	halide_int64_to_string(PLT)
	ldr	r1, .LCPI114_5
.LPC114_4:
	add	r2, pc, r1
	mov	r1, #0
	bl	halide_string_to_string(PLT)
	asr	r3, r8, #31
	mov	r1, #0
	mov	r2, r8
	str	r4, [sp]
	bl	halide_int64_to_string(PLT)
	ldr	r0, .LCPI114_6
.LPC114_3:
	add	r1, pc, r0
	mov	r0, r9
.LBB114_3:                              @ %_ZN6Halide7Runtime8Internal12_GLOBAL__N_17PrinterILi1ELy1024EED2Ev.exit
	bl	halide_error(PLT)
	mov	r0, r9
	mov	r1, r5
	bl	halide_free(PLT)
	mvn	r0, #2
	sub	sp, r11, #28
	pop	{r4, r5, r6, r7, r8, r9, r10, r11, pc}
	.align	2
@ BB#4:
.LCPI114_0:
	.long	.L.str.9.116-(.LPC114_2+8)
.LCPI114_1:
	.long	.L.str.10.117-(.LPC114_1+8)
.LCPI114_2:
	.long	.L.str.11.118-(.LPC114_0+8)
.LCPI114_3:
	.long	.L.str.9.116-(.LPC114_6+8)
.LCPI114_4:
	.long	.L.str.10.117-(.LPC114_5+8)
.LCPI114_5:
	.long	.L.str.11.118-(.LPC114_4+8)
.LCPI114_6:
	.long	.L.str.18.147-(.LPC114_3+8)
.Lfunc_end114:
	.size	halide_error_bad_elem_size, .Lfunc_end114-halide_error_bad_elem_size
	.cantunwind
	.fnend

	.section	.text.halide_error_access_out_of_bounds,"ax",%progbits
	.weak	halide_error_access_out_of_bounds
	.align	2
	.type	halide_error_access_out_of_bounds,%function
halide_error_access_out_of_bounds:      @ @halide_error_access_out_of_bounds
	.fnstart
@ BB#0:
	.save	{r4, r5, r6, r7, r8, r9, r10, r11, lr}
	push	{r4, r5, r6, r7, r8, r9, r10, r11, lr}
	.setfp	r11, sp, #28
	add	r11, sp, #28
	.pad	#12
	sub	sp, sp, #12
	ldr	r8, [r11, #12]
	mov	r5, r3
	mov	r4, r1
	mov	r10, r0
	cmp	r5, r8
	bge	.LBB115_3
@ BB#1:
	mov	r0, r10
	mov	r1, #1024
	str	r2, [sp, #8]            @ 4-byte Spill
	bl	halide_malloc(PLT)
	mov	r6, r0
	mov	r7, #0
	cmp	r6, #0
	mov	r9, #1
	movne	r9, #0
	movne	r7, r6
	strbne	r9, [r7, #1023]!
	mov	r0, r6
	mov	r2, r4
	mov	r1, r7
	bl	halide_string_to_string(PLT)
	ldr	r1, .LCPI115_4
.LPC115_6:
	add	r2, pc, r1
	mov	r1, r7
	bl	halide_string_to_string(PLT)
	asr	r3, r5, #31
	mov	r4, #1
	mov	r1, r7
	str	r4, [sp]
	mov	r2, r5
	bl	halide_int64_to_string(PLT)
	ldr	r1, .LCPI115_5
.LPC115_5:
	add	r2, pc, r1
	mov	r1, r7
	bl	halide_string_to_string(PLT)
	asr	r3, r8, #31
	mov	r1, r7
	mov	r2, r8
	str	r4, [sp]
	bl	halide_int64_to_string(PLT)
	ldr	r1, .LCPI115_6
.LPC115_4:
	add	r2, pc, r1
	mov	r1, r7
	bl	halide_string_to_string(PLT)
	ldr	r2, [sp, #8]            @ 4-byte Reload
	mov	r1, r7
	str	r4, [sp]
	asr	r3, r2, #31
	bl	halide_int64_to_string(PLT)
	cmp	r9, #1
	bne	.LBB115_6
@ BB#2:
	ldr	r0, .LCPI115_7
.LPC115_7:
	add	r1, pc, r0
	mov	r0, r10
	b	.LBB115_7
.LBB115_3:
	ldr	r8, [r11, #16]
	ldr	r5, [r11, #8]
	cmp	r5, r8
	ble	.LBB115_8
@ BB#4:
	mov	r0, r10
	mov	r1, #1024
	str	r2, [sp, #8]            @ 4-byte Spill
	bl	halide_malloc(PLT)
	mov	r6, r0
	mov	r7, #0
	cmp	r6, #0
	mov	r9, #1
	movne	r9, #0
	movne	r7, r6
	strbne	r9, [r7, #1023]!
	mov	r0, r6
	mov	r2, r4
	mov	r1, r7
	bl	halide_string_to_string(PLT)
	ldr	r1, .LCPI115_0
.LPC115_2:
	add	r2, pc, r1
	mov	r1, r7
	bl	halide_string_to_string(PLT)
	asr	r3, r5, #31
	mov	r4, #1
	mov	r1, r7
	str	r4, [sp]
	mov	r2, r5
	bl	halide_int64_to_string(PLT)
	ldr	r1, .LCPI115_1
.LPC115_1:
	add	r2, pc, r1
	mov	r1, r7
	bl	halide_string_to_string(PLT)
	asr	r3, r8, #31
	mov	r1, r7
	mov	r2, r8
	str	r4, [sp]
	bl	halide_int64_to_string(PLT)
	ldr	r1, .LCPI115_2
.LPC115_0:
	add	r2, pc, r1
	mov	r1, r7
	bl	halide_string_to_string(PLT)
	ldr	r2, [sp, #8]            @ 4-byte Reload
	mov	r1, r7
	str	r4, [sp]
	asr	r3, r2, #31
	bl	halide_int64_to_string(PLT)
	cmp	r9, #1
	bne	.LBB115_6
@ BB#5:
	ldr	r0, .LCPI115_3
.LPC115_3:
	add	r1, pc, r0
	mov	r0, r10
	b	.LBB115_7
.LBB115_6:
	mov	r0, r10
	mov	r1, r6
.LBB115_7:                              @ %_ZN6Halide7Runtime8Internal12_GLOBAL__N_17PrinterILi1ELy1024EED2Ev.exit2
	bl	halide_error(PLT)
	mov	r0, r10
	mov	r1, r6
	bl	halide_free(PLT)
.LBB115_8:
	mvn	r0, #3
	sub	sp, r11, #28
	pop	{r4, r5, r6, r7, r8, r9, r10, r11, pc}
	.align	2
@ BB#9:
.LCPI115_0:
	.long	.L.str.12.119-(.LPC115_2+8)
.LCPI115_1:
	.long	.L.str.15.122-(.LPC115_1+8)
.LCPI115_2:
	.long	.L.str.14.121-(.LPC115_0+8)
.LCPI115_3:
	.long	.L.str.18.147-(.LPC115_3+8)
.LCPI115_4:
	.long	.L.str.12.119-(.LPC115_6+8)
.LCPI115_5:
	.long	.L.str.13.120-(.LPC115_5+8)
.LCPI115_6:
	.long	.L.str.14.121-(.LPC115_4+8)
.LCPI115_7:
	.long	.L.str.18.147-(.LPC115_7+8)
.Lfunc_end115:
	.size	halide_error_access_out_of_bounds, .Lfunc_end115-halide_error_access_out_of_bounds
	.cantunwind
	.fnend

	.section	.text.halide_error_buffer_allocation_too_large,"ax",%progbits
	.weak	halide_error_buffer_allocation_too_large
	.align	2
	.type	halide_error_buffer_allocation_too_large,%function
halide_error_buffer_allocation_too_large: @ @halide_error_buffer_allocation_too_large
	.fnstart
@ BB#0:
	.save	{r4, r5, r6, r7, r8, r9, r10, r11, lr}
	push	{r4, r5, r6, r7, r8, r9, r10, r11, lr}
	.setfp	r11, sp, #28
	add	r11, sp, #28
	.pad	#4
	sub	sp, sp, #4
	mov	r8, r1
	mov	r1, #1024
	mov	r10, r3
	mov	r9, r2
	mov	r4, r0
	bl	halide_malloc(PLT)
	ldr	r7, [r11, #12]
	mov	r5, r0
	cmp	r5, #0
	beq	.LBB116_2
@ BB#1:                                 @ %_ZN6Halide7Runtime8Internal12_GLOBAL__N_17PrinterILi1ELy1024EEC2EPvPc.exit
	mov	r1, #0
	mov	r6, r5
	strb	r1, [r6, #1023]!
	ldr	r0, .LCPI116_0
	mov	r1, r6
.LPC116_2:
	add	r2, pc, r0
	mov	r0, r5
	bl	halide_string_to_string(PLT)
	mov	r1, r6
	mov	r2, r8
	bl	halide_string_to_string(PLT)
	ldr	r1, .LCPI116_1
.LPC116_1:
	add	r2, pc, r1
	mov	r1, r6
	bl	halide_string_to_string(PLT)
	mov	r8, r7
	mov	r7, #1
	mov	r1, r6
	mov	r2, r9
	mov	r3, r10
	str	r7, [sp]
	bl	halide_uint64_to_string(PLT)
	ldr	r1, .LCPI116_2
.LPC116_0:
	add	r2, pc, r1
	mov	r1, r6
	bl	halide_string_to_string(PLT)
	ldr	r2, [r11, #8]
	mov	r1, r6
	mov	r3, r8
	str	r7, [sp]
	bl	halide_uint64_to_string(PLT)
	mov	r0, r4
	mov	r1, r5
	b	.LBB116_3
.LBB116_2:                              @ %.critedge
	ldr	r0, .LCPI116_3
	mov	r1, #0
.LPC116_6:
	add	r2, pc, r0
	mov	r0, #0
	bl	halide_string_to_string(PLT)
	mov	r1, #0
	mov	r2, r8
	bl	halide_string_to_string(PLT)
	ldr	r1, .LCPI116_4
.LPC116_5:
	add	r2, pc, r1
	mov	r1, #0
	bl	halide_string_to_string(PLT)
	mov	r6, #1
	mov	r1, #0
	mov	r2, r9
	mov	r3, r10
	str	r6, [sp]
	bl	halide_uint64_to_string(PLT)
	ldr	r1, .LCPI116_5
.LPC116_4:
	add	r2, pc, r1
	mov	r1, #0
	bl	halide_string_to_string(PLT)
	ldr	r2, [r11, #8]
	mov	r1, #0
	mov	r3, r7
	str	r6, [sp]
	bl	halide_uint64_to_string(PLT)
	ldr	r0, .LCPI116_6
.LPC116_3:
	add	r1, pc, r0
	mov	r0, r4
.LBB116_3:                              @ %_ZN6Halide7Runtime8Internal12_GLOBAL__N_17PrinterILi1ELy1024EED2Ev.exit
	bl	halide_error(PLT)
	mov	r0, r4
	mov	r1, r5
	bl	halide_free(PLT)
	mvn	r0, #4
	sub	sp, r11, #28
	pop	{r4, r5, r6, r7, r8, r9, r10, r11, pc}
	.align	2
@ BB#4:
.LCPI116_0:
	.long	.L.str.16.123-(.LPC116_2+8)
.LCPI116_1:
	.long	.L.str.17.124-(.LPC116_1+8)
.LCPI116_2:
	.long	.L.str.18.125-(.LPC116_0+8)
.LCPI116_3:
	.long	.L.str.16.123-(.LPC116_6+8)
.LCPI116_4:
	.long	.L.str.17.124-(.LPC116_5+8)
.LCPI116_5:
	.long	.L.str.18.125-(.LPC116_4+8)
.LCPI116_6:
	.long	.L.str.18.147-(.LPC116_3+8)
.Lfunc_end116:
	.size	halide_error_buffer_allocation_too_large, .Lfunc_end116-halide_error_buffer_allocation_too_large
	.cantunwind
	.fnend

	.section	.text.halide_error_buffer_extents_too_large,"ax",%progbits
	.weak	halide_error_buffer_extents_too_large
	.align	2
	.type	halide_error_buffer_extents_too_large,%function
halide_error_buffer_extents_too_large:  @ @halide_error_buffer_extents_too_large
	.fnstart
@ BB#0:
	.save	{r4, r5, r6, r7, r8, r9, r10, r11, lr}
	push	{r4, r5, r6, r7, r8, r9, r10, r11, lr}
	.setfp	r11, sp, #28
	add	r11, sp, #28
	.pad	#4
	sub	sp, sp, #4
	mov	r8, r1
	mov	r1, #1024
	mov	r10, r3
	mov	r9, r2
	mov	r4, r0
	bl	halide_malloc(PLT)
	ldr	r7, [r11, #12]
	mov	r5, r0
	cmp	r5, #0
	beq	.LBB117_2
@ BB#1:                                 @ %_ZN6Halide7Runtime8Internal12_GLOBAL__N_17PrinterILi1ELy1024EEC2EPvPc.exit
	mov	r1, #0
	mov	r6, r5
	strb	r1, [r6, #1023]!
	ldr	r0, .LCPI117_0
	mov	r1, r6
.LPC117_2:
	add	r2, pc, r0
	mov	r0, r5
	bl	halide_string_to_string(PLT)
	mov	r1, r6
	mov	r2, r8
	bl	halide_string_to_string(PLT)
	ldr	r1, .LCPI117_1
.LPC117_1:
	add	r2, pc, r1
	mov	r1, r6
	bl	halide_string_to_string(PLT)
	mov	r8, r7
	mov	r7, #1
	mov	r1, r6
	mov	r2, r9
	mov	r3, r10
	str	r7, [sp]
	bl	halide_int64_to_string(PLT)
	ldr	r1, .LCPI117_2
.LPC117_0:
	add	r2, pc, r1
	mov	r1, r6
	bl	halide_string_to_string(PLT)
	ldr	r2, [r11, #8]
	mov	r1, r6
	mov	r3, r8
	str	r7, [sp]
	bl	halide_int64_to_string(PLT)
	mov	r0, r4
	mov	r1, r5
	b	.LBB117_3
.LBB117_2:                              @ %.critedge
	ldr	r0, .LCPI117_3
	mov	r1, #0
.LPC117_6:
	add	r2, pc, r0
	mov	r0, #0
	bl	halide_string_to_string(PLT)
	mov	r1, #0
	mov	r2, r8
	bl	halide_string_to_string(PLT)
	ldr	r1, .LCPI117_4
.LPC117_5:
	add	r2, pc, r1
	mov	r1, #0
	bl	halide_string_to_string(PLT)
	mov	r6, #1
	mov	r1, #0
	mov	r2, r9
	mov	r3, r10
	str	r6, [sp]
	bl	halide_int64_to_string(PLT)
	ldr	r1, .LCPI117_5
.LPC117_4:
	add	r2, pc, r1
	mov	r1, #0
	bl	halide_string_to_string(PLT)
	ldr	r2, [r11, #8]
	mov	r1, #0
	mov	r3, r7
	str	r6, [sp]
	bl	halide_int64_to_string(PLT)
	ldr	r0, .LCPI117_6
.LPC117_3:
	add	r1, pc, r0
	mov	r0, r4
.LBB117_3:                              @ %_ZN6Halide7Runtime8Internal12_GLOBAL__N_17PrinterILi1ELy1024EED2Ev.exit
	bl	halide_error(PLT)
	mov	r0, r4
	mov	r1, r5
	bl	halide_free(PLT)
	mvn	r0, #5
	sub	sp, r11, #28
	pop	{r4, r5, r6, r7, r8, r9, r10, r11, pc}
	.align	2
@ BB#4:
.LCPI117_0:
	.long	.L.str.19.126-(.LPC117_2+8)
.LCPI117_1:
	.long	.L.str.17.124-(.LPC117_1+8)
.LCPI117_2:
	.long	.L.str.18.125-(.LPC117_0+8)
.LCPI117_3:
	.long	.L.str.19.126-(.LPC117_6+8)
.LCPI117_4:
	.long	.L.str.17.124-(.LPC117_5+8)
.LCPI117_5:
	.long	.L.str.18.125-(.LPC117_4+8)
.LCPI117_6:
	.long	.L.str.18.147-(.LPC117_3+8)
.Lfunc_end117:
	.size	halide_error_buffer_extents_too_large, .Lfunc_end117-halide_error_buffer_extents_too_large
	.cantunwind
	.fnend

	.section	.text.halide_error_constraints_make_required_region_smaller,"ax",%progbits
	.weak	halide_error_constraints_make_required_region_smaller
	.align	2
	.type	halide_error_constraints_make_required_region_smaller,%function
halide_error_constraints_make_required_region_smaller: @ @halide_error_constraints_make_required_region_smaller
	.fnstart
@ BB#0:
	.save	{r4, r5, r6, r7, r8, r9, r10, r11, lr}
	push	{r4, r5, r6, r7, r8, r9, r10, r11, lr}
	.setfp	r11, sp, #28
	add	r11, sp, #28
	.pad	#12
	sub	sp, sp, #12
	ldr	r2, [r11, #16]
	mov	r8, r3
	mov	r6, r1
	ldr	r10, [r11, #12]
	add	r1, r8, r2
	str	r0, [sp, #8]            @ 4-byte Spill
	sub	r1, r1, #1
	str	r1, [sp, #4]            @ 4-byte Spill
	add	r1, r10, r2
	sub	r4, r1, #1
	mov	r1, #1024
	bl	halide_malloc(PLT)
	mov	r5, r0
	mov	r7, #0
	cmp	r5, #0
	movne	r0, #0
	movne	r7, r5
	strbne	r0, [r7, #1023]!
	ldr	r0, .LCPI118_0
	mov	r1, r7
.LPC118_6:
	add	r2, pc, r0
	mov	r0, r5
	bl	halide_string_to_string(PLT)
	mov	r1, r7
	mov	r2, r6
	bl	halide_string_to_string(PLT)
	ldr	r1, .LCPI118_1
.LPC118_5:
	add	r2, pc, r1
	mov	r1, r7
	bl	halide_string_to_string(PLT)
	ldr	r1, .LCPI118_2
.LPC118_4:
	add	r2, pc, r1
	mov	r1, r7
	bl	halide_string_to_string(PLT)
	asr	r3, r10, #31
	mov	r9, #1
	mov	r1, r7
	str	r9, [sp]
	mov	r2, r10
	bl	halide_int64_to_string(PLT)
	ldr	r1, .LCPI118_3
.LPC118_3:
	add	r6, pc, r1
	mov	r1, r7
	mov	r2, r6
	bl	halide_string_to_string(PLT)
	asr	r3, r4, #31
	mov	r1, r7
	mov	r2, r4
	str	r9, [sp]
	bl	halide_int64_to_string(PLT)
	ldr	r1, .LCPI118_4
.LPC118_2:
	add	r2, pc, r1
	mov	r1, r7
	bl	halide_string_to_string(PLT)
	ldr	r1, .LCPI118_5
.LPC118_1:
	add	r2, pc, r1
	mov	r1, r7
	bl	halide_string_to_string(PLT)
	asr	r3, r8, #31
	mov	r1, r7
	mov	r2, r8
	str	r9, [sp]
	bl	halide_int64_to_string(PLT)
	mov	r1, r7
	mov	r2, r6
	bl	halide_string_to_string(PLT)
	ldr	r2, [sp, #4]            @ 4-byte Reload
	mov	r1, r7
	str	r9, [sp]
	asr	r3, r2, #31
	bl	halide_int64_to_string(PLT)
	ldr	r1, .LCPI118_6
.LPC118_0:
	add	r2, pc, r1
	mov	r1, r7
	bl	halide_string_to_string(PLT)
	cmp	r5, #0
	beq	.LBB118_2
@ BB#1:
	ldr	r4, [sp, #8]            @ 4-byte Reload
	mov	r1, r5
	mov	r0, r4
	b	.LBB118_3
.LBB118_2:
	ldr	r4, [sp, #8]            @ 4-byte Reload
	ldr	r0, .LCPI118_7
.LPC118_7:
	add	r1, pc, r0
	mov	r0, r4
.LBB118_3:                              @ %_ZN6Halide7Runtime8Internal12_GLOBAL__N_17PrinterILi1ELy1024EED2Ev.exit
	bl	halide_error(PLT)
	mov	r0, r4
	mov	r1, r5
	bl	halide_free(PLT)
	mvn	r0, #6
	sub	sp, r11, #28
	pop	{r4, r5, r6, r7, r8, r9, r10, r11, pc}
	.align	2
@ BB#4:
.LCPI118_0:
	.long	.L.str.20.127-(.LPC118_6+8)
.LCPI118_1:
	.long	.L.str.21.128-(.LPC118_5+8)
.LCPI118_2:
	.long	.L.str.22.129-(.LPC118_4+8)
.LCPI118_3:
	.long	.L.str.6.113-(.LPC118_3+8)
.LCPI118_4:
	.long	.L.str.23.130-(.LPC118_2+8)
.LCPI118_5:
	.long	.L.str.24.131-(.LPC118_1+8)
.LCPI118_6:
	.long	.L.str.25.132-(.LPC118_0+8)
.LCPI118_7:
	.long	.L.str.18.147-(.LPC118_7+8)
.Lfunc_end118:
	.size	halide_error_constraints_make_required_region_smaller, .Lfunc_end118-halide_error_constraints_make_required_region_smaller
	.cantunwind
	.fnend

	.section	.text.halide_error_constraint_violated,"ax",%progbits
	.weak	halide_error_constraint_violated
	.align	2
	.type	halide_error_constraint_violated,%function
halide_error_constraint_violated:       @ @halide_error_constraint_violated
	.fnstart
@ BB#0:
	.save	{r4, r5, r6, r7, r8, r9, r10, r11, lr}
	push	{r4, r5, r6, r7, r8, r9, r10, r11, lr}
	.setfp	r11, sp, #28
	add	r11, sp, #28
	.pad	#4
	sub	sp, sp, #4
	mov	r4, r1
	mov	r1, #1024
	mov	r8, r3
	mov	r6, r2
	mov	r9, r0
	bl	halide_malloc(PLT)
	mov	r5, r0
	mov	r7, #0
	cmp	r5, #0
	mov	r10, #1
	movne	r10, #0
	movne	r7, r5
	strbne	r10, [r7, #1023]!
	ldr	r0, .LCPI119_0
	mov	r1, r7
.LPC119_3:
	add	r2, pc, r0
	mov	r0, r5
	bl	halide_string_to_string(PLT)
	mov	r1, r7
	mov	r2, r4
	bl	halide_string_to_string(PLT)
	ldr	r1, .LCPI119_1
.LPC119_2:
	add	r4, pc, r1
	mov	r1, r7
	mov	r2, r4
	bl	halide_string_to_string(PLT)
	mov	r1, #1
	asr	r3, r6, #31
	str	r1, [sp]
	mov	r1, r7
	mov	r2, r6
	bl	halide_int64_to_string(PLT)
	ldr	r1, .LCPI119_2
.LPC119_1:
	add	r2, pc, r1
	mov	r1, r7
	bl	halide_string_to_string(PLT)
	mov	r1, r7
	mov	r2, r8
	bl	halide_string_to_string(PLT)
	mov	r1, r7
	mov	r2, r4
	bl	halide_string_to_string(PLT)
	mov	r1, r7
	mov	r2, r8
	bl	halide_string_to_string(PLT)
	ldr	r1, .LCPI119_3
.LPC119_0:
	add	r2, pc, r1
	mov	r1, r7
	bl	halide_string_to_string(PLT)
	cmp	r10, #1
	bne	.LBB119_2
@ BB#1:
	ldr	r0, .LCPI119_4
.LPC119_4:
	add	r1, pc, r0
	mov	r0, r9
	b	.LBB119_3
.LBB119_2:
	mov	r0, r9
	mov	r1, r5
.LBB119_3:                              @ %_ZN6Halide7Runtime8Internal12_GLOBAL__N_17PrinterILi1ELy1024EED2Ev.exit
	bl	halide_error(PLT)
	mov	r0, r9
	mov	r1, r5
	bl	halide_free(PLT)
	mvn	r0, #7
	sub	sp, r11, #28
	pop	{r4, r5, r6, r7, r8, r9, r10, r11, pc}
	.align	2
@ BB#4:
.LCPI119_0:
	.long	.L.str.26.133-(.LPC119_3+8)
.LCPI119_1:
	.long	.L.str.27.134-(.LPC119_2+8)
.LCPI119_2:
	.long	.L.str.28.135-(.LPC119_1+8)
.LCPI119_3:
	.long	.L.str.8.115-(.LPC119_0+8)
.LCPI119_4:
	.long	.L.str.18.147-(.LPC119_4+8)
.Lfunc_end119:
	.size	halide_error_constraint_violated, .Lfunc_end119-halide_error_constraint_violated
	.cantunwind
	.fnend

	.section	.text.halide_error_param_too_small_i64,"ax",%progbits
	.weak	halide_error_param_too_small_i64
	.align	2
	.type	halide_error_param_too_small_i64,%function
halide_error_param_too_small_i64:       @ @halide_error_param_too_small_i64
	.fnstart
@ BB#0:
	.save	{r4, r5, r6, r7, r8, r9, r10, r11, lr}
	push	{r4, r5, r6, r7, r8, r9, r10, r11, lr}
	.setfp	r11, sp, #28
	add	r11, sp, #28
	.pad	#4
	sub	sp, sp, #4
	mov	r8, r1
	mov	r1, #1024
	mov	r10, r3
	mov	r9, r2
	mov	r4, r0
	bl	halide_malloc(PLT)
	ldr	r7, [r11, #12]
	mov	r5, r0
	cmp	r5, #0
	beq	.LBB120_2
@ BB#1:                                 @ %_ZN6Halide7Runtime8Internal12_GLOBAL__N_17PrinterILi1ELy1024EEC2EPvPc.exit
	mov	r1, #0
	mov	r6, r5
	strb	r1, [r6, #1023]!
	ldr	r0, .LCPI120_0
	mov	r1, r6
.LPC120_2:
	add	r2, pc, r0
	mov	r0, r5
	bl	halide_string_to_string(PLT)
	mov	r1, r6
	mov	r2, r8
	bl	halide_string_to_string(PLT)
	ldr	r1, .LCPI120_1
.LPC120_1:
	add	r2, pc, r1
	mov	r1, r6
	bl	halide_string_to_string(PLT)
	mov	r8, r7
	mov	r7, #1
	mov	r1, r6
	mov	r2, r9
	mov	r3, r10
	str	r7, [sp]
	bl	halide_int64_to_string(PLT)
	ldr	r1, .LCPI120_2
.LPC120_0:
	add	r2, pc, r1
	mov	r1, r6
	bl	halide_string_to_string(PLT)
	ldr	r2, [r11, #8]
	mov	r1, r6
	mov	r3, r8
	str	r7, [sp]
	bl	halide_int64_to_string(PLT)
	mov	r0, r4
	mov	r1, r5
	b	.LBB120_3
.LBB120_2:                              @ %.critedge
	ldr	r0, .LCPI120_3
	mov	r1, #0
.LPC120_6:
	add	r2, pc, r0
	mov	r0, #0
	bl	halide_string_to_string(PLT)
	mov	r1, #0
	mov	r2, r8
	bl	halide_string_to_string(PLT)
	ldr	r1, .LCPI120_4
.LPC120_5:
	add	r2, pc, r1
	mov	r1, #0
	bl	halide_string_to_string(PLT)
	mov	r6, #1
	mov	r1, #0
	mov	r2, r9
	mov	r3, r10
	str	r6, [sp]
	bl	halide_int64_to_string(PLT)
	ldr	r1, .LCPI120_5
.LPC120_4:
	add	r2, pc, r1
	mov	r1, #0
	bl	halide_string_to_string(PLT)
	ldr	r2, [r11, #8]
	mov	r1, #0
	mov	r3, r7
	str	r6, [sp]
	bl	halide_int64_to_string(PLT)
	ldr	r0, .LCPI120_6
.LPC120_3:
	add	r1, pc, r0
	mov	r0, r4
.LBB120_3:                              @ %_ZN6Halide7Runtime8Internal12_GLOBAL__N_17PrinterILi1ELy1024EED2Ev.exit
	bl	halide_error(PLT)
	mov	r0, r4
	mov	r1, r5
	bl	halide_free(PLT)
	mvn	r0, #8
	sub	sp, r11, #28
	pop	{r4, r5, r6, r7, r8, r9, r10, r11, pc}
	.align	2
@ BB#4:
.LCPI120_0:
	.long	.L.str.29.136-(.LPC120_2+8)
.LCPI120_1:
	.long	.L.str.17.124-(.LPC120_1+8)
.LCPI120_2:
	.long	.L.str.30-(.LPC120_0+8)
.LCPI120_3:
	.long	.L.str.29.136-(.LPC120_6+8)
.LCPI120_4:
	.long	.L.str.17.124-(.LPC120_5+8)
.LCPI120_5:
	.long	.L.str.30-(.LPC120_4+8)
.LCPI120_6:
	.long	.L.str.18.147-(.LPC120_3+8)
.Lfunc_end120:
	.size	halide_error_param_too_small_i64, .Lfunc_end120-halide_error_param_too_small_i64
	.cantunwind
	.fnend

	.section	.text.halide_error_param_too_small_u64,"ax",%progbits
	.weak	halide_error_param_too_small_u64
	.align	2
	.type	halide_error_param_too_small_u64,%function
halide_error_param_too_small_u64:       @ @halide_error_param_too_small_u64
	.fnstart
@ BB#0:
	.save	{r4, r5, r6, r7, r8, r9, r10, r11, lr}
	push	{r4, r5, r6, r7, r8, r9, r10, r11, lr}
	.setfp	r11, sp, #28
	add	r11, sp, #28
	.pad	#4
	sub	sp, sp, #4
	mov	r8, r1
	mov	r1, #1024
	mov	r10, r3
	mov	r9, r2
	mov	r4, r0
	bl	halide_malloc(PLT)
	ldr	r7, [r11, #12]
	mov	r5, r0
	cmp	r5, #0
	beq	.LBB121_2
@ BB#1:                                 @ %_ZN6Halide7Runtime8Internal12_GLOBAL__N_17PrinterILi1ELy1024EEC2EPvPc.exit
	mov	r1, #0
	mov	r6, r5
	strb	r1, [r6, #1023]!
	ldr	r0, .LCPI121_0
	mov	r1, r6
.LPC121_2:
	add	r2, pc, r0
	mov	r0, r5
	bl	halide_string_to_string(PLT)
	mov	r1, r6
	mov	r2, r8
	bl	halide_string_to_string(PLT)
	ldr	r1, .LCPI121_1
.LPC121_1:
	add	r2, pc, r1
	mov	r1, r6
	bl	halide_string_to_string(PLT)
	mov	r8, r7
	mov	r7, #1
	mov	r1, r6
	mov	r2, r9
	mov	r3, r10
	str	r7, [sp]
	bl	halide_uint64_to_string(PLT)
	ldr	r1, .LCPI121_2
.LPC121_0:
	add	r2, pc, r1
	mov	r1, r6
	bl	halide_string_to_string(PLT)
	ldr	r2, [r11, #8]
	mov	r1, r6
	mov	r3, r8
	str	r7, [sp]
	bl	halide_uint64_to_string(PLT)
	mov	r0, r4
	mov	r1, r5
	b	.LBB121_3
.LBB121_2:                              @ %.critedge
	ldr	r0, .LCPI121_3
	mov	r1, #0
.LPC121_6:
	add	r2, pc, r0
	mov	r0, #0
	bl	halide_string_to_string(PLT)
	mov	r1, #0
	mov	r2, r8
	bl	halide_string_to_string(PLT)
	ldr	r1, .LCPI121_4
.LPC121_5:
	add	r2, pc, r1
	mov	r1, #0
	bl	halide_string_to_string(PLT)
	mov	r6, #1
	mov	r1, #0
	mov	r2, r9
	mov	r3, r10
	str	r6, [sp]
	bl	halide_uint64_to_string(PLT)
	ldr	r1, .LCPI121_5
.LPC121_4:
	add	r2, pc, r1
	mov	r1, #0
	bl	halide_string_to_string(PLT)
	ldr	r2, [r11, #8]
	mov	r1, #0
	mov	r3, r7
	str	r6, [sp]
	bl	halide_uint64_to_string(PLT)
	ldr	r0, .LCPI121_6
.LPC121_3:
	add	r1, pc, r0
	mov	r0, r4
.LBB121_3:                              @ %_ZN6Halide7Runtime8Internal12_GLOBAL__N_17PrinterILi1ELy1024EED2Ev.exit
	bl	halide_error(PLT)
	mov	r0, r4
	mov	r1, r5
	bl	halide_free(PLT)
	mvn	r0, #8
	sub	sp, r11, #28
	pop	{r4, r5, r6, r7, r8, r9, r10, r11, pc}
	.align	2
@ BB#4:
.LCPI121_0:
	.long	.L.str.29.136-(.LPC121_2+8)
.LCPI121_1:
	.long	.L.str.17.124-(.LPC121_1+8)
.LCPI121_2:
	.long	.L.str.30-(.LPC121_0+8)
.LCPI121_3:
	.long	.L.str.29.136-(.LPC121_6+8)
.LCPI121_4:
	.long	.L.str.17.124-(.LPC121_5+8)
.LCPI121_5:
	.long	.L.str.30-(.LPC121_4+8)
.LCPI121_6:
	.long	.L.str.18.147-(.LPC121_3+8)
.Lfunc_end121:
	.size	halide_error_param_too_small_u64, .Lfunc_end121-halide_error_param_too_small_u64
	.cantunwind
	.fnend

	.section	.text.halide_error_param_too_small_f64,"ax",%progbits
	.weak	halide_error_param_too_small_f64
	.align	2
	.type	halide_error_param_too_small_f64,%function
halide_error_param_too_small_f64:       @ @halide_error_param_too_small_f64
	.fnstart
@ BB#0:
	.save	{r4, r5, r6, r7, r11, lr}
	push	{r4, r5, r6, r7, r11, lr}
	.setfp	r11, sp, #16
	add	r11, sp, #16
	.vsave	{d8, d9}
	vpush	{d8, d9}
	mov	r7, r1
	mov	r1, #1024
	vmov.f64	d8, d1
	mov	r4, r0
	vmov.f64	d9, d0
	bl	halide_malloc(PLT)
	mov	r5, r0
	cmp	r5, #0
	beq	.LBB122_2
@ BB#1:                                 @ %_ZN6Halide7Runtime8Internal12_GLOBAL__N_17PrinterILi1ELy1024EEC2EPvPc.exit
	mov	r1, #0
	mov	r6, r5
	strb	r1, [r6, #1023]!
	ldr	r0, .LCPI122_0
	mov	r1, r6
.LPC122_2:
	add	r2, pc, r0
	mov	r0, r5
	bl	halide_string_to_string(PLT)
	mov	r1, r6
	mov	r2, r7
	bl	halide_string_to_string(PLT)
	ldr	r1, .LCPI122_1
.LPC122_1:
	add	r2, pc, r1
	mov	r1, r6
	bl	halide_string_to_string(PLT)
	mov	r1, r6
	vmov.f64	d0, d9
	mov	r2, #1
	bl	halide_double_to_string(PLT)
	ldr	r1, .LCPI122_2
.LPC122_0:
	add	r2, pc, r1
	mov	r1, r6
	bl	halide_string_to_string(PLT)
	mov	r1, r6
	vmov.f64	d0, d8
	mov	r2, #1
	bl	halide_double_to_string(PLT)
	mov	r0, r4
	mov	r1, r5
	b	.LBB122_3
.LBB122_2:                              @ %.critedge
	ldr	r0, .LCPI122_3
	mov	r1, #0
.LPC122_6:
	add	r2, pc, r0
	mov	r0, #0
	bl	halide_string_to_string(PLT)
	mov	r1, #0
	mov	r2, r7
	bl	halide_string_to_string(PLT)
	ldr	r1, .LCPI122_4
.LPC122_5:
	add	r2, pc, r1
	mov	r1, #0
	bl	halide_string_to_string(PLT)
	mov	r1, #0
	vmov.f64	d0, d9
	mov	r2, #1
	bl	halide_double_to_string(PLT)
	ldr	r1, .LCPI122_5
.LPC122_4:
	add	r2, pc, r1
	mov	r1, #0
	bl	halide_string_to_string(PLT)
	mov	r1, #0
	vmov.f64	d0, d8
	mov	r2, #1
	bl	halide_double_to_string(PLT)
	ldr	r0, .LCPI122_6
.LPC122_3:
	add	r1, pc, r0
	mov	r0, r4
.LBB122_3:                              @ %_ZN6Halide7Runtime8Internal12_GLOBAL__N_17PrinterILi1ELy1024EED2Ev.exit
	bl	halide_error(PLT)
	mov	r0, r4
	mov	r1, r5
	bl	halide_free(PLT)
	mvn	r0, #8
	vpop	{d8, d9}
	pop	{r4, r5, r6, r7, r11, pc}
	.align	2
@ BB#4:
.LCPI122_0:
	.long	.L.str.29.136-(.LPC122_2+8)
.LCPI122_1:
	.long	.L.str.17.124-(.LPC122_1+8)
.LCPI122_2:
	.long	.L.str.30-(.LPC122_0+8)
.LCPI122_3:
	.long	.L.str.29.136-(.LPC122_6+8)
.LCPI122_4:
	.long	.L.str.17.124-(.LPC122_5+8)
.LCPI122_5:
	.long	.L.str.30-(.LPC122_4+8)
.LCPI122_6:
	.long	.L.str.18.147-(.LPC122_3+8)
.Lfunc_end122:
	.size	halide_error_param_too_small_f64, .Lfunc_end122-halide_error_param_too_small_f64
	.cantunwind
	.fnend

	.section	.text.halide_error_param_too_large_i64,"ax",%progbits
	.weak	halide_error_param_too_large_i64
	.align	2
	.type	halide_error_param_too_large_i64,%function
halide_error_param_too_large_i64:       @ @halide_error_param_too_large_i64
	.fnstart
@ BB#0:
	.save	{r4, r5, r6, r7, r8, r9, r10, r11, lr}
	push	{r4, r5, r6, r7, r8, r9, r10, r11, lr}
	.setfp	r11, sp, #28
	add	r11, sp, #28
	.pad	#4
	sub	sp, sp, #4
	mov	r8, r1
	mov	r1, #1024
	mov	r10, r3
	mov	r9, r2
	mov	r4, r0
	bl	halide_malloc(PLT)
	ldr	r7, [r11, #12]
	mov	r5, r0
	cmp	r5, #0
	beq	.LBB123_2
@ BB#1:                                 @ %_ZN6Halide7Runtime8Internal12_GLOBAL__N_17PrinterILi1ELy1024EEC2EPvPc.exit
	mov	r1, #0
	mov	r6, r5
	strb	r1, [r6, #1023]!
	ldr	r0, .LCPI123_0
	mov	r1, r6
.LPC123_2:
	add	r2, pc, r0
	mov	r0, r5
	bl	halide_string_to_string(PLT)
	mov	r1, r6
	mov	r2, r8
	bl	halide_string_to_string(PLT)
	ldr	r1, .LCPI123_1
.LPC123_1:
	add	r2, pc, r1
	mov	r1, r6
	bl	halide_string_to_string(PLT)
	mov	r8, r7
	mov	r7, #1
	mov	r1, r6
	mov	r2, r9
	mov	r3, r10
	str	r7, [sp]
	bl	halide_int64_to_string(PLT)
	ldr	r1, .LCPI123_2
.LPC123_0:
	add	r2, pc, r1
	mov	r1, r6
	bl	halide_string_to_string(PLT)
	ldr	r2, [r11, #8]
	mov	r1, r6
	mov	r3, r8
	str	r7, [sp]
	bl	halide_int64_to_string(PLT)
	mov	r0, r4
	mov	r1, r5
	b	.LBB123_3
.LBB123_2:                              @ %.critedge
	ldr	r0, .LCPI123_3
	mov	r1, #0
.LPC123_6:
	add	r2, pc, r0
	mov	r0, #0
	bl	halide_string_to_string(PLT)
	mov	r1, #0
	mov	r2, r8
	bl	halide_string_to_string(PLT)
	ldr	r1, .LCPI123_4
.LPC123_5:
	add	r2, pc, r1
	mov	r1, #0
	bl	halide_string_to_string(PLT)
	mov	r6, #1
	mov	r1, #0
	mov	r2, r9
	mov	r3, r10
	str	r6, [sp]
	bl	halide_int64_to_string(PLT)
	ldr	r1, .LCPI123_5
.LPC123_4:
	add	r2, pc, r1
	mov	r1, #0
	bl	halide_string_to_string(PLT)
	ldr	r2, [r11, #8]
	mov	r1, #0
	mov	r3, r7
	str	r6, [sp]
	bl	halide_int64_to_string(PLT)
	ldr	r0, .LCPI123_6
.LPC123_3:
	add	r1, pc, r0
	mov	r0, r4
.LBB123_3:                              @ %_ZN6Halide7Runtime8Internal12_GLOBAL__N_17PrinterILi1ELy1024EED2Ev.exit
	bl	halide_error(PLT)
	mov	r0, r4
	mov	r1, r5
	bl	halide_free(PLT)
	mvn	r0, #9
	sub	sp, r11, #28
	pop	{r4, r5, r6, r7, r8, r9, r10, r11, pc}
	.align	2
@ BB#4:
.LCPI123_0:
	.long	.L.str.29.136-(.LPC123_2+8)
.LCPI123_1:
	.long	.L.str.17.124-(.LPC123_1+8)
.LCPI123_2:
	.long	.L.str.31-(.LPC123_0+8)
.LCPI123_3:
	.long	.L.str.29.136-(.LPC123_6+8)
.LCPI123_4:
	.long	.L.str.17.124-(.LPC123_5+8)
.LCPI123_5:
	.long	.L.str.31-(.LPC123_4+8)
.LCPI123_6:
	.long	.L.str.18.147-(.LPC123_3+8)
.Lfunc_end123:
	.size	halide_error_param_too_large_i64, .Lfunc_end123-halide_error_param_too_large_i64
	.cantunwind
	.fnend

	.section	.text.halide_error_param_too_large_u64,"ax",%progbits
	.weak	halide_error_param_too_large_u64
	.align	2
	.type	halide_error_param_too_large_u64,%function
halide_error_param_too_large_u64:       @ @halide_error_param_too_large_u64
	.fnstart
@ BB#0:
	.save	{r4, r5, r6, r7, r8, r9, r10, r11, lr}
	push	{r4, r5, r6, r7, r8, r9, r10, r11, lr}
	.setfp	r11, sp, #28
	add	r11, sp, #28
	.pad	#4
	sub	sp, sp, #4
	mov	r8, r1
	mov	r1, #1024
	mov	r10, r3
	mov	r9, r2
	mov	r4, r0
	bl	halide_malloc(PLT)
	ldr	r7, [r11, #12]
	mov	r5, r0
	cmp	r5, #0
	beq	.LBB124_2
@ BB#1:                                 @ %_ZN6Halide7Runtime8Internal12_GLOBAL__N_17PrinterILi1ELy1024EEC2EPvPc.exit
	mov	r1, #0
	mov	r6, r5
	strb	r1, [r6, #1023]!
	ldr	r0, .LCPI124_0
	mov	r1, r6
.LPC124_2:
	add	r2, pc, r0
	mov	r0, r5
	bl	halide_string_to_string(PLT)
	mov	r1, r6
	mov	r2, r8
	bl	halide_string_to_string(PLT)
	ldr	r1, .LCPI124_1
.LPC124_1:
	add	r2, pc, r1
	mov	r1, r6
	bl	halide_string_to_string(PLT)
	mov	r8, r7
	mov	r7, #1
	mov	r1, r6
	mov	r2, r9
	mov	r3, r10
	str	r7, [sp]
	bl	halide_uint64_to_string(PLT)
	ldr	r1, .LCPI124_2
.LPC124_0:
	add	r2, pc, r1
	mov	r1, r6
	bl	halide_string_to_string(PLT)
	ldr	r2, [r11, #8]
	mov	r1, r6
	mov	r3, r8
	str	r7, [sp]
	bl	halide_uint64_to_string(PLT)
	mov	r0, r4
	mov	r1, r5
	b	.LBB124_3
.LBB124_2:                              @ %.critedge
	ldr	r0, .LCPI124_3
	mov	r1, #0
.LPC124_6:
	add	r2, pc, r0
	mov	r0, #0
	bl	halide_string_to_string(PLT)
	mov	r1, #0
	mov	r2, r8
	bl	halide_string_to_string(PLT)
	ldr	r1, .LCPI124_4
.LPC124_5:
	add	r2, pc, r1
	mov	r1, #0
	bl	halide_string_to_string(PLT)
	mov	r6, #1
	mov	r1, #0
	mov	r2, r9
	mov	r3, r10
	str	r6, [sp]
	bl	halide_uint64_to_string(PLT)
	ldr	r1, .LCPI124_5
.LPC124_4:
	add	r2, pc, r1
	mov	r1, #0
	bl	halide_string_to_string(PLT)
	ldr	r2, [r11, #8]
	mov	r1, #0
	mov	r3, r7
	str	r6, [sp]
	bl	halide_uint64_to_string(PLT)
	ldr	r0, .LCPI124_6
.LPC124_3:
	add	r1, pc, r0
	mov	r0, r4
.LBB124_3:                              @ %_ZN6Halide7Runtime8Internal12_GLOBAL__N_17PrinterILi1ELy1024EED2Ev.exit
	bl	halide_error(PLT)
	mov	r0, r4
	mov	r1, r5
	bl	halide_free(PLT)
	mvn	r0, #9
	sub	sp, r11, #28
	pop	{r4, r5, r6, r7, r8, r9, r10, r11, pc}
	.align	2
@ BB#4:
.LCPI124_0:
	.long	.L.str.29.136-(.LPC124_2+8)
.LCPI124_1:
	.long	.L.str.17.124-(.LPC124_1+8)
.LCPI124_2:
	.long	.L.str.31-(.LPC124_0+8)
.LCPI124_3:
	.long	.L.str.29.136-(.LPC124_6+8)
.LCPI124_4:
	.long	.L.str.17.124-(.LPC124_5+8)
.LCPI124_5:
	.long	.L.str.31-(.LPC124_4+8)
.LCPI124_6:
	.long	.L.str.18.147-(.LPC124_3+8)
.Lfunc_end124:
	.size	halide_error_param_too_large_u64, .Lfunc_end124-halide_error_param_too_large_u64
	.cantunwind
	.fnend

	.section	.text.halide_error_param_too_large_f64,"ax",%progbits
	.weak	halide_error_param_too_large_f64
	.align	2
	.type	halide_error_param_too_large_f64,%function
halide_error_param_too_large_f64:       @ @halide_error_param_too_large_f64
	.fnstart
@ BB#0:
	.save	{r4, r5, r6, r7, r11, lr}
	push	{r4, r5, r6, r7, r11, lr}
	.setfp	r11, sp, #16
	add	r11, sp, #16
	.vsave	{d8, d9}
	vpush	{d8, d9}
	mov	r7, r1
	mov	r1, #1024
	vmov.f64	d8, d1
	mov	r4, r0
	vmov.f64	d9, d0
	bl	halide_malloc(PLT)
	mov	r5, r0
	cmp	r5, #0
	beq	.LBB125_2
@ BB#1:                                 @ %_ZN6Halide7Runtime8Internal12_GLOBAL__N_17PrinterILi1ELy1024EEC2EPvPc.exit
	mov	r1, #0
	mov	r6, r5
	strb	r1, [r6, #1023]!
	ldr	r0, .LCPI125_0
	mov	r1, r6
.LPC125_2:
	add	r2, pc, r0
	mov	r0, r5
	bl	halide_string_to_string(PLT)
	mov	r1, r6
	mov	r2, r7
	bl	halide_string_to_string(PLT)
	ldr	r1, .LCPI125_1
.LPC125_1:
	add	r2, pc, r1
	mov	r1, r6
	bl	halide_string_to_string(PLT)
	mov	r1, r6
	vmov.f64	d0, d9
	mov	r2, #1
	bl	halide_double_to_string(PLT)
	ldr	r1, .LCPI125_2
.LPC125_0:
	add	r2, pc, r1
	mov	r1, r6
	bl	halide_string_to_string(PLT)
	mov	r1, r6
	vmov.f64	d0, d8
	mov	r2, #1
	bl	halide_double_to_string(PLT)
	mov	r0, r4
	mov	r1, r5
	b	.LBB125_3
.LBB125_2:                              @ %.critedge
	ldr	r0, .LCPI125_3
	mov	r1, #0
.LPC125_6:
	add	r2, pc, r0
	mov	r0, #0
	bl	halide_string_to_string(PLT)
	mov	r1, #0
	mov	r2, r7
	bl	halide_string_to_string(PLT)
	ldr	r1, .LCPI125_4
.LPC125_5:
	add	r2, pc, r1
	mov	r1, #0
	bl	halide_string_to_string(PLT)
	mov	r1, #0
	vmov.f64	d0, d9
	mov	r2, #1
	bl	halide_double_to_string(PLT)
	ldr	r1, .LCPI125_5
.LPC125_4:
	add	r2, pc, r1
	mov	r1, #0
	bl	halide_string_to_string(PLT)
	mov	r1, #0
	vmov.f64	d0, d8
	mov	r2, #1
	bl	halide_double_to_string(PLT)
	ldr	r0, .LCPI125_6
.LPC125_3:
	add	r1, pc, r0
	mov	r0, r4
.LBB125_3:                              @ %_ZN6Halide7Runtime8Internal12_GLOBAL__N_17PrinterILi1ELy1024EED2Ev.exit
	bl	halide_error(PLT)
	mov	r0, r4
	mov	r1, r5
	bl	halide_free(PLT)
	mvn	r0, #9
	vpop	{d8, d9}
	pop	{r4, r5, r6, r7, r11, pc}
	.align	2
@ BB#4:
.LCPI125_0:
	.long	.L.str.29.136-(.LPC125_2+8)
.LCPI125_1:
	.long	.L.str.17.124-(.LPC125_1+8)
.LCPI125_2:
	.long	.L.str.31-(.LPC125_0+8)
.LCPI125_3:
	.long	.L.str.29.136-(.LPC125_6+8)
.LCPI125_4:
	.long	.L.str.17.124-(.LPC125_5+8)
.LCPI125_5:
	.long	.L.str.31-(.LPC125_4+8)
.LCPI125_6:
	.long	.L.str.18.147-(.LPC125_3+8)
.Lfunc_end125:
	.size	halide_error_param_too_large_f64, .Lfunc_end125-halide_error_param_too_large_f64
	.cantunwind
	.fnend

	.section	.text.halide_error_out_of_memory,"ax",%progbits
	.weak	halide_error_out_of_memory
	.align	2
	.type	halide_error_out_of_memory,%function
halide_error_out_of_memory:             @ @halide_error_out_of_memory
	.fnstart
@ BB#0:
	.save	{r11, lr}
	push	{r11, lr}
	.setfp	r11, sp
	mov	r11, sp
	ldr	r1, .LCPI126_0
.LPC126_0:
	add	r1, pc, r1
	bl	halide_error(PLT)
	mvn	r0, #10
	pop	{r11, pc}
	.align	2
@ BB#1:
.LCPI126_0:
	.long	.L.str.32-(.LPC126_0+8)
.Lfunc_end126:
	.size	halide_error_out_of_memory, .Lfunc_end126-halide_error_out_of_memory
	.cantunwind
	.fnend

	.section	.text.halide_error_buffer_argument_is_null,"ax",%progbits
	.weak	halide_error_buffer_argument_is_null
	.align	2
	.type	halide_error_buffer_argument_is_null,%function
halide_error_buffer_argument_is_null:   @ @halide_error_buffer_argument_is_null
	.fnstart
@ BB#0:
	.save	{r4, r5, r6, r7, r11, lr}
	push	{r4, r5, r6, r7, r11, lr}
	.setfp	r11, sp, #16
	add	r11, sp, #16
	mov	r6, r1
	mov	r1, #1024
	mov	r4, r0
	bl	halide_malloc(PLT)
	mov	r5, r0
	cmp	r5, #0
	beq	.LBB127_2
@ BB#1:                                 @ %_ZN6Halide7Runtime8Internal12_GLOBAL__N_17PrinterILi1ELy1024EEC2EPvPc.exit
	mov	r1, #0
	mov	r7, r5
	strb	r1, [r7, #1023]!
	ldr	r0, .LCPI127_0
	mov	r1, r7
.LPC127_1:
	add	r2, pc, r0
	mov	r0, r5
	bl	halide_string_to_string(PLT)
	mov	r1, r7
	mov	r2, r6
	bl	halide_string_to_string(PLT)
	ldr	r1, .LCPI127_1
.LPC127_0:
	add	r2, pc, r1
	mov	r1, r7
	bl	halide_string_to_string(PLT)
	mov	r0, r4
	mov	r1, r5
	b	.LBB127_3
.LBB127_2:                              @ %.critedge
	ldr	r0, .LCPI127_2
	mov	r1, #0
.LPC127_4:
	add	r2, pc, r0
	mov	r0, #0
	bl	halide_string_to_string(PLT)
	mov	r1, #0
	mov	r2, r6
	bl	halide_string_to_string(PLT)
	ldr	r1, .LCPI127_3
.LPC127_3:
	add	r2, pc, r1
	mov	r1, #0
	bl	halide_string_to_string(PLT)
	ldr	r0, .LCPI127_4
.LPC127_2:
	add	r1, pc, r0
	mov	r0, r4
.LBB127_3:                              @ %_ZN6Halide7Runtime8Internal12_GLOBAL__N_17PrinterILi1ELy1024EED2Ev.exit
	bl	halide_error(PLT)
	mov	r0, r4
	mov	r1, r5
	bl	halide_free(PLT)
	mvn	r0, #11
	pop	{r4, r5, r6, r7, r11, pc}
	.align	2
@ BB#4:
.LCPI127_0:
	.long	.L.str.33-(.LPC127_1+8)
.LCPI127_1:
	.long	.L.str.34.139-(.LPC127_0+8)
.LCPI127_2:
	.long	.L.str.33-(.LPC127_4+8)
.LCPI127_3:
	.long	.L.str.34.139-(.LPC127_3+8)
.LCPI127_4:
	.long	.L.str.18.147-(.LPC127_2+8)
.Lfunc_end127:
	.size	halide_error_buffer_argument_is_null, .Lfunc_end127-halide_error_buffer_argument_is_null
	.cantunwind
	.fnend

	.section	.text.halide_error_debug_to_file_failed,"ax",%progbits
	.weak	halide_error_debug_to_file_failed
	.align	2
	.type	halide_error_debug_to_file_failed,%function
halide_error_debug_to_file_failed:      @ @halide_error_debug_to_file_failed
	.fnstart
@ BB#0:
	.save	{r4, r5, r6, r7, r8, r9, r11, lr}
	push	{r4, r5, r6, r7, r8, r9, r11, lr}
	.setfp	r11, sp, #24
	add	r11, sp, #24
	.pad	#8
	sub	sp, sp, #8
	mov	r6, r1
	mov	r1, #1024
	mov	r9, r3
	mov	r8, r2
	mov	r4, r0
	bl	halide_malloc(PLT)
	mov	r5, r0
	cmp	r5, #0
	beq	.LBB128_2
@ BB#1:                                 @ %_ZN6Halide7Runtime8Internal12_GLOBAL__N_17PrinterILi1ELy1024EEC2EPvPc.exit
	mov	r1, #0
	mov	r7, r5
	strb	r1, [r7, #1023]!
	ldr	r0, .LCPI128_0
	mov	r1, r7
.LPC128_2:
	add	r2, pc, r0
	mov	r0, r5
	bl	halide_string_to_string(PLT)
	mov	r1, r7
	mov	r2, r6
	bl	halide_string_to_string(PLT)
	ldr	r1, .LCPI128_1
.LPC128_1:
	add	r2, pc, r1
	mov	r1, r7
	bl	halide_string_to_string(PLT)
	mov	r1, r7
	mov	r2, r8
	bl	halide_string_to_string(PLT)
	ldr	r1, .LCPI128_2
.LPC128_0:
	add	r2, pc, r1
	mov	r1, r7
	bl	halide_string_to_string(PLT)
	mov	r1, #1
	asr	r3, r9, #31
	str	r1, [sp]
	mov	r1, r7
	mov	r2, r9
	bl	halide_int64_to_string(PLT)
	mov	r0, r4
	mov	r1, r5
	b	.LBB128_3
.LBB128_2:                              @ %.critedge
	ldr	r0, .LCPI128_3
	mov	r1, #0
.LPC128_6:
	add	r2, pc, r0
	mov	r0, #0
	bl	halide_string_to_string(PLT)
	mov	r1, #0
	mov	r2, r6
	bl	halide_string_to_string(PLT)
	ldr	r1, .LCPI128_4
.LPC128_5:
	add	r2, pc, r1
	mov	r1, #0
	bl	halide_string_to_string(PLT)
	mov	r1, #0
	mov	r2, r8
	bl	halide_string_to_string(PLT)
	ldr	r1, .LCPI128_5
.LPC128_4:
	add	r2, pc, r1
	mov	r1, #0
	bl	halide_string_to_string(PLT)
	mov	r1, #1
	asr	r3, r9, #31
	str	r1, [sp]
	mov	r1, #0
	mov	r2, r9
	bl	halide_int64_to_string(PLT)
	ldr	r0, .LCPI128_6
.LPC128_3:
	add	r1, pc, r0
	mov	r0, r4
.LBB128_3:                              @ %_ZN6Halide7Runtime8Internal12_GLOBAL__N_17PrinterILi1ELy1024EED2Ev.exit
	bl	halide_error(PLT)
	mov	r0, r4
	mov	r1, r5
	bl	halide_free(PLT)
	mvn	r0, #12
	sub	sp, r11, #24
	pop	{r4, r5, r6, r7, r8, r9, r11, pc}
	.align	2
@ BB#4:
.LCPI128_0:
	.long	.L.str.35-(.LPC128_2+8)
.LCPI128_1:
	.long	.L.str.36-(.LPC128_1+8)
.LCPI128_2:
	.long	.L.str.37.140-(.LPC128_0+8)
.LCPI128_3:
	.long	.L.str.35-(.LPC128_6+8)
.LCPI128_4:
	.long	.L.str.36-(.LPC128_5+8)
.LCPI128_5:
	.long	.L.str.37.140-(.LPC128_4+8)
.LCPI128_6:
	.long	.L.str.18.147-(.LPC128_3+8)
.Lfunc_end128:
	.size	halide_error_debug_to_file_failed, .Lfunc_end128-halide_error_debug_to_file_failed
	.cantunwind
	.fnend

	.section	.text.halide_error_unaligned_host_ptr,"ax",%progbits
	.weak	halide_error_unaligned_host_ptr
	.align	2
	.type	halide_error_unaligned_host_ptr,%function
halide_error_unaligned_host_ptr:        @ @halide_error_unaligned_host_ptr
	.fnstart
@ BB#0:
	.save	{r4, r5, r6, r7, r8, r10, r11, lr}
	push	{r4, r5, r6, r7, r8, r10, r11, lr}
	.setfp	r11, sp, #24
	add	r11, sp, #24
	.pad	#8
	sub	sp, sp, #8
	mov	r7, r1
	mov	r1, #1024
	mov	r6, r2
	mov	r8, r0
	bl	halide_malloc(PLT)
	mov	r5, r0
	cmp	r5, #0
	beq	.LBB129_2
@ BB#1:                                 @ %_ZN6Halide7Runtime8Internal12_GLOBAL__N_17PrinterILi1ELy1024EEC2EPvPc.exit
	mov	r1, #0
	mov	r4, r5
	strb	r1, [r4, #1023]!
	ldr	r0, .LCPI129_0
	mov	r1, r4
.LPC129_2:
	add	r2, pc, r0
	mov	r0, r5
	bl	halide_string_to_string(PLT)
	mov	r1, r4
	mov	r2, r7
	bl	halide_string_to_string(PLT)
	ldr	r1, .LCPI129_1
.LPC129_1:
	add	r2, pc, r1
	mov	r1, r4
	bl	halide_string_to_string(PLT)
	mov	r1, #1
	asr	r3, r6, #31
	str	r1, [sp]
	mov	r1, r4
	mov	r2, r6
	bl	halide_int64_to_string(PLT)
	ldr	r1, .LCPI129_2
.LPC129_0:
	add	r2, pc, r1
	mov	r1, r4
	bl	halide_string_to_string(PLT)
	mov	r0, r8
	mov	r1, r5
	b	.LBB129_3
.LBB129_2:                              @ %.critedge
	ldr	r0, .LCPI129_3
	mov	r1, #0
.LPC129_6:
	add	r2, pc, r0
	mov	r0, #0
	bl	halide_string_to_string(PLT)
	mov	r1, #0
	mov	r2, r7
	bl	halide_string_to_string(PLT)
	ldr	r1, .LCPI129_4
.LPC129_5:
	add	r2, pc, r1
	mov	r1, #0
	bl	halide_string_to_string(PLT)
	mov	r1, #1
	asr	r3, r6, #31
	str	r1, [sp]
	mov	r1, #0
	mov	r2, r6
	bl	halide_int64_to_string(PLT)
	ldr	r1, .LCPI129_5
.LPC129_4:
	add	r2, pc, r1
	mov	r1, #0
	bl	halide_string_to_string(PLT)
	ldr	r0, .LCPI129_6
.LPC129_3:
	add	r1, pc, r0
	mov	r0, r8
.LBB129_3:                              @ %_ZN6Halide7Runtime8Internal12_GLOBAL__N_17PrinterILi1ELy1024EED2Ev.exit
	bl	halide_error(PLT)
	mov	r0, r8
	mov	r1, r5
	bl	halide_free(PLT)
	mvn	r0, #23
	sub	sp, r11, #24
	pop	{r4, r5, r6, r7, r8, r10, r11, pc}
	.align	2
@ BB#4:
.LCPI129_0:
	.long	.L.str.38-(.LPC129_2+8)
.LCPI129_1:
	.long	.L.str.39.141-(.LPC129_1+8)
.LCPI129_2:
	.long	.L.str.40-(.LPC129_0+8)
.LCPI129_3:
	.long	.L.str.38-(.LPC129_6+8)
.LCPI129_4:
	.long	.L.str.39.141-(.LPC129_5+8)
.LCPI129_5:
	.long	.L.str.40-(.LPC129_4+8)
.LCPI129_6:
	.long	.L.str.18.147-(.LPC129_3+8)
.Lfunc_end129:
	.size	halide_error_unaligned_host_ptr, .Lfunc_end129-halide_error_unaligned_host_ptr
	.cantunwind
	.fnend

	.section	.text.halide_error_bad_fold,"ax",%progbits
	.weak	halide_error_bad_fold
	.align	2
	.type	halide_error_bad_fold,%function
halide_error_bad_fold:                  @ @halide_error_bad_fold
	.fnstart
@ BB#0:
	.save	{r4, r5, r6, r7, r8, r9, r11, lr}
	push	{r4, r5, r6, r7, r8, r9, r11, lr}
	.setfp	r11, sp, #24
	add	r11, sp, #24
	mov	r9, r1
	mov	r1, #1024
	mov	r8, r3
	mov	r7, r2
	mov	r4, r0
	bl	halide_malloc(PLT)
	mov	r5, r0
	cmp	r5, #0
	beq	.LBB130_2
@ BB#1:                                 @ %_ZN6Halide7Runtime8Internal12_GLOBAL__N_17PrinterILi1ELy1024EEC2EPvPc.exit
	mov	r1, #0
	mov	r6, r5
	strb	r1, [r6, #1023]!
	ldr	r0, .LCPI130_0
	mov	r1, r6
.LPC130_3:
	add	r2, pc, r0
	mov	r0, r5
	bl	halide_string_to_string(PLT)
	mov	r1, r6
	mov	r2, r7
	bl	halide_string_to_string(PLT)
	ldr	r1, .LCPI130_1
.LPC130_2:
	add	r2, pc, r1
	mov	r1, r6
	bl	halide_string_to_string(PLT)
	mov	r1, r6
	mov	r2, r9
	bl	halide_string_to_string(PLT)
	ldr	r1, .LCPI130_2
.LPC130_1:
	add	r2, pc, r1
	mov	r1, r6
	bl	halide_string_to_string(PLT)
	mov	r1, r6
	mov	r2, r8
	bl	halide_string_to_string(PLT)
	ldr	r1, .LCPI130_3
.LPC130_0:
	add	r2, pc, r1
	mov	r1, r6
	bl	halide_string_to_string(PLT)
	mov	r0, r4
	mov	r1, r5
	b	.LBB130_3
.LBB130_2:                              @ %.critedge
	ldr	r0, .LCPI130_4
	mov	r1, #0
.LPC130_8:
	add	r2, pc, r0
	mov	r0, #0
	bl	halide_string_to_string(PLT)
	mov	r1, #0
	mov	r2, r7
	bl	halide_string_to_string(PLT)
	ldr	r1, .LCPI130_5
.LPC130_7:
	add	r2, pc, r1
	mov	r1, #0
	bl	halide_string_to_string(PLT)
	mov	r1, #0
	mov	r2, r9
	bl	halide_string_to_string(PLT)
	ldr	r1, .LCPI130_6
.LPC130_6:
	add	r2, pc, r1
	mov	r1, #0
	bl	halide_string_to_string(PLT)
	mov	r1, #0
	mov	r2, r8
	bl	halide_string_to_string(PLT)
	ldr	r1, .LCPI130_7
.LPC130_5:
	add	r2, pc, r1
	mov	r1, #0
	bl	halide_string_to_string(PLT)
	ldr	r0, .LCPI130_8
.LPC130_4:
	add	r1, pc, r0
	mov	r0, r4
.LBB130_3:                              @ %_ZN6Halide7Runtime8Internal12_GLOBAL__N_17PrinterILi1ELy1024EED2Ev.exit
	bl	halide_error(PLT)
	mov	r0, r4
	mov	r1, r5
	bl	halide_free(PLT)
	mvn	r0, #24
	pop	{r4, r5, r6, r7, r8, r9, r11, pc}
	.align	2
@ BB#4:
.LCPI130_0:
	.long	.L.str.41.142-(.LPC130_3+8)
.LCPI130_1:
	.long	.L.str.42.143-(.LPC130_2+8)
.LCPI130_2:
	.long	.L.str.43-(.LPC130_1+8)
.LCPI130_3:
	.long	.L.str.25.132-(.LPC130_0+8)
.LCPI130_4:
	.long	.L.str.41.142-(.LPC130_8+8)
.LCPI130_5:
	.long	.L.str.42.143-(.LPC130_7+8)
.LCPI130_6:
	.long	.L.str.43-(.LPC130_6+8)
.LCPI130_7:
	.long	.L.str.25.132-(.LPC130_5+8)
.LCPI130_8:
	.long	.L.str.18.147-(.LPC130_4+8)
.Lfunc_end130:
	.size	halide_error_bad_fold, .Lfunc_end130-halide_error_bad_fold
	.cantunwind
	.fnend

	.section	.text.halide_error_fold_factor_too_small,"ax",%progbits
	.weak	halide_error_fold_factor_too_small
	.align	2
	.type	halide_error_fold_factor_too_small,%function
halide_error_fold_factor_too_small:     @ @halide_error_fold_factor_too_small
	.fnstart
@ BB#0:
	.save	{r4, r5, r6, r7, r8, r9, r10, r11, lr}
	push	{r4, r5, r6, r7, r8, r9, r10, r11, lr}
	.setfp	r11, sp, #28
	add	r11, sp, #28
	.pad	#4
	sub	sp, sp, #4
	mov	r10, r1
	mov	r1, #1024
	mov	r8, r3
	mov	r7, r2
	mov	r4, r0
	bl	halide_malloc(PLT)
	mov	r5, r0
	mov	r6, #0
	cmp	r5, #0
	movne	r0, #0
	movne	r6, r5
	strbne	r0, [r6, #1023]!
	ldr	r0, .LCPI131_0
	mov	r1, r6
.LPC131_5:
	add	r2, pc, r0
	mov	r0, r5
	bl	halide_string_to_string(PLT)
	asr	r3, r8, #31
	mov	r9, #1
	mov	r1, r6
	str	r9, [sp]
	mov	r2, r8
	bl	halide_int64_to_string(PLT)
	ldr	r1, .LCPI131_1
.LPC131_4:
	add	r2, pc, r1
	mov	r1, r6
	bl	halide_string_to_string(PLT)
	mov	r1, r6
	mov	r2, r7
	bl	halide_string_to_string(PLT)
	ldr	r1, .LCPI131_2
.LPC131_3:
	add	r2, pc, r1
	mov	r1, r6
	bl	halide_string_to_string(PLT)
	mov	r1, r6
	mov	r2, r10
	bl	halide_string_to_string(PLT)
	ldr	r1, .LCPI131_3
.LPC131_2:
	add	r2, pc, r1
	mov	r1, r6
	bl	halide_string_to_string(PLT)
	ldr	r2, [r11, #8]
	mov	r1, r6
	bl	halide_string_to_string(PLT)
	ldr	r1, .LCPI131_4
.LPC131_1:
	add	r2, pc, r1
	mov	r1, r6
	bl	halide_string_to_string(PLT)
	ldr	r2, [r11, #12]
	mov	r1, r6
	str	r9, [sp]
	asr	r3, r2, #31
	bl	halide_int64_to_string(PLT)
	ldr	r1, .LCPI131_5
.LPC131_0:
	add	r2, pc, r1
	mov	r1, r6
	bl	halide_string_to_string(PLT)
	cmp	r5, #0
	beq	.LBB131_2
@ BB#1:
	mov	r0, r4
	mov	r1, r5
	b	.LBB131_3
.LBB131_2:
	ldr	r0, .LCPI131_6
.LPC131_6:
	add	r1, pc, r0
	mov	r0, r4
.LBB131_3:                              @ %_ZN6Halide7Runtime8Internal12_GLOBAL__N_17PrinterILi1ELy1024EED2Ev.exit
	bl	halide_error(PLT)
	mov	r0, r4
	mov	r1, r5
	bl	halide_free(PLT)
	mvn	r0, #25
	sub	sp, r11, #28
	pop	{r4, r5, r6, r7, r8, r9, r10, r11, pc}
	.align	2
@ BB#4:
.LCPI131_0:
	.long	.L.str.44-(.LPC131_5+8)
.LCPI131_1:
	.long	.L.str.45-(.LPC131_4+8)
.LCPI131_2:
